TMS320C2000 Assembler PC v22.6.0 Tue Dec 20 15:55:14 2022

Copyright (c) 1996-2018 Texas Instruments Incorporated
obc_7_4kw.asm                                                        PAGE    1

       1              ;***************************************************************
       2              ;* TMS320C2000 G3 C/C++ Codegen                               PC v22.6.0.LTS *
       3              ;* Date/Time created: Tue Dec 20 15:55:13 2022                 *
       4              ;***************************************************************
       5                      .compiler_opts --abi=eabi --cla_support=cla2 --diag_wrap=off --float_support=fpu64 --hll_source=on --
       6                      .asg    XAR2, FP
       7              
       8              $C$DW$CU        .dwtag  DW_TAG_compile_unit
       9                      .dwattr $C$DW$CU, DW_AT_name("../obc_7_4kw.c")
      10                      .dwattr $C$DW$CU, DW_AT_producer("TI TMS320C2000 G3 C/C++ Codegen PC v22.6.0.LTS Copyright (c) 1996-2
      11                      .dwattr $C$DW$CU, DW_AT_TI_version(0x01)
      12                      .dwattr $C$DW$CU, DW_AT_comp_dir("C:\Users\gerar\workspace_v12\7.4kW_OBC_F28003x\RELEASE")
      13              
      14              ;**************************************************************
      15              ;* FUNCTION SYNONYMS                                          *
      16              ;**************************************************************
      17                      .symalias ||OBC_7_4KW_setupDevice||, ||CLLLC_HAL_setupDevice||
      18                      .symalias ||OBC_7_4KW_disablePWMClkCounting||, ||CLLLC_HAL_disablePWMClkCounting||
      19                      .symalias ||OBC_7_4KW_enablePWMClkCounting||, ||CLLLC_HAL_enablePWMClkCounting||
      20                      .symalias ||OBC_7_4KW_setupProfiling||, ||CLLLC_HAL_setupECAPforProfilingCode||
      21                      .symalias ||OBC_7_4KW_setupGaNTempReading||, ||CLLLC_HAL_setupECAPforGaNTemp||
      22                      .symalias ||OBC_7_4KW_setupSFRA||, ||TTPLPFC_setupSFRA||
      23              
      24              $C$DW$1 .dwtag  DW_TAG_subprogram
      25                      .dwattr $C$DW$1, DW_AT_name("CLLLC_HAL_setupCLA")
      26                      .dwattr $C$DW$1, DW_AT_linkage_name("CLLLC_HAL_setupCLA")
      27                      .dwattr $C$DW$1, DW_AT_declaration
      28                      .dwattr $C$DW$1, DW_AT_external
      29                      .dwattr $C$DW$1, DW_AT_decl_file("C:\Users\gerar\workspace_v12\7.4kW_OBC_F28003x\clllc\clllc_hal.h")
      30                      .dwattr $C$DW$1, DW_AT_decl_line(0x5c)
      31                      .dwattr $C$DW$1, DW_AT_decl_column(0x06)
      32                      .dwendtag $C$DW$1
      33              
      34              
      35              $C$DW$2 .dwtag  DW_TAG_subprogram
      36                      .dwattr $C$DW$2, DW_AT_name("CLLLC_HAL_setupECAPinPWMMode")
      37                      .dwattr $C$DW$2, DW_AT_linkage_name("CLLLC_HAL_setupECAPinPWMMode")
      38                      .dwattr $C$DW$2, DW_AT_declaration
      39                      .dwattr $C$DW$2, DW_AT_external
      40                      .dwattr $C$DW$2, DW_AT_decl_file("C:\Users\gerar\workspace_v12\7.4kW_OBC_F28003x\clllc\clllc_hal.h")
      41                      .dwattr $C$DW$2, DW_AT_decl_line(0x81)
      42                      .dwattr $C$DW$2, DW_AT_decl_column(0x06)
      43              $C$DW$3 .dwtag  DW_TAG_formal_parameter
      44                      .dwattr $C$DW$3, DW_AT_type(*$C$DW$T$43)
      45              
      46              $C$DW$4 .dwtag  DW_TAG_formal_parameter
      47                      .dwattr $C$DW$4, DW_AT_type(*$C$DW$T$57)
      48              
      49              $C$DW$5 .dwtag  DW_TAG_formal_parameter
      50                      .dwattr $C$DW$5, DW_AT_type(*$C$DW$T$57)
      51              
      52                      .dwendtag $C$DW$2
      53              
      54              
      55              $C$DW$6 .dwtag  DW_TAG_subprogram
TMS320C2000 Assembler PC v22.6.0 Tue Dec 20 15:55:14 2022

Copyright (c) 1996-2018 Texas Instruments Incorporated
obc_7_4kw.asm                                                        PAGE    2

      56                      .dwattr $C$DW$6, DW_AT_name("ISR2_secToPrimPowerFlow")
      57                      .dwattr $C$DW$6, DW_AT_linkage_name("ISR2_secToPrimPowerFlow")
      58                      .dwattr $C$DW$6, DW_AT_declaration
      59                      .dwattr $C$DW$6, DW_AT_external
      60                      .dwattr $C$DW$6, DW_AT_decl_file("C:\Users\gerar\workspace_v12\7.4kW_OBC_F28003x\clllc\clllc_hal.h")
      61                      .dwattr $C$DW$6, DW_AT_decl_line(0xb9)
      62                      .dwattr $C$DW$6, DW_AT_decl_column(0x14)
      63                      .dwendtag $C$DW$6
      64              
      65              
      66              $C$DW$7 .dwtag  DW_TAG_subprogram
      67                      .dwattr $C$DW$7, DW_AT_name("ISR2_primToSecPowerFlow")
      68                      .dwattr $C$DW$7, DW_AT_linkage_name("ISR2_primToSecPowerFlow")
      69                      .dwattr $C$DW$7, DW_AT_declaration
      70                      .dwattr $C$DW$7, DW_AT_external
      71                      .dwattr $C$DW$7, DW_AT_decl_file("C:\Users\gerar\workspace_v12\7.4kW_OBC_F28003x\clllc\clllc_hal.h")
      72                      .dwattr $C$DW$7, DW_AT_decl_line(0xb7)
      73                      .dwattr $C$DW$7, DW_AT_decl_column(0x14)
      74                      .dwendtag $C$DW$7
      75              
      76              
      77              $C$DW$8 .dwtag  DW_TAG_subprogram
      78                      .dwattr $C$DW$8, DW_AT_name("Interrupt_enable")
      79                      .dwattr $C$DW$8, DW_AT_linkage_name("Interrupt_enable")
      80                      .dwattr $C$DW$8, DW_AT_declaration
      81                      .dwattr $C$DW$8, DW_AT_external
      82                      .dwattr $C$DW$8, DW_AT_decl_file("C:\Users\gerar\workspace_v12\7.4kW_OBC_F28003x\device\driverlib\int
      83                      .dwattr $C$DW$8, DW_AT_decl_line(0x1f9)
      84                      .dwattr $C$DW$8, DW_AT_decl_column(0x01)
      85              $C$DW$9 .dwtag  DW_TAG_formal_parameter
      86                      .dwattr $C$DW$9, DW_AT_type(*$C$DW$T$43)
      87              
      88                      .dwendtag $C$DW$8
      89              
      90              
      91              $C$DW$10        .dwtag  DW_TAG_subprogram
      92                      .dwattr $C$DW$10, DW_AT_name("ISR3")
      93                      .dwattr $C$DW$10, DW_AT_linkage_name("ISR3")
      94                      .dwattr $C$DW$10, DW_AT_declaration
      95                      .dwattr $C$DW$10, DW_AT_external
      96                      .dwattr $C$DW$10, DW_AT_decl_file("C:\Users\gerar\workspace_v12\7.4kW_OBC_F28003x\clllc\clllc_hal.h")
      97                      .dwattr $C$DW$10, DW_AT_decl_line(0xc1)
      98                      .dwattr $C$DW$10, DW_AT_decl_column(0x14)
      99                      .dwendtag $C$DW$10
     100              
     101              
     102              $C$DW$11        .dwtag  DW_TAG_subprogram
     103                      .dwattr $C$DW$11, DW_AT_name("CLLLC_HAL_setupDevice")
     104                      .dwattr $C$DW$11, DW_AT_linkage_name("CLLLC_HAL_setupDevice")
     105                      .dwattr $C$DW$11, DW_AT_declaration
     106                      .dwattr $C$DW$11, DW_AT_external
     107                      .dwattr $C$DW$11, DW_AT_decl_file("C:\Users\gerar\workspace_v12\7.4kW_OBC_F28003x\clllc\clllc_hal.h")
     108                      .dwattr $C$DW$11, DW_AT_decl_line(0x43)
     109                      .dwattr $C$DW$11, DW_AT_decl_column(0x06)
     110                      .dwendtag $C$DW$11
TMS320C2000 Assembler PC v22.6.0 Tue Dec 20 15:55:14 2022

Copyright (c) 1996-2018 Texas Instruments Incorporated
obc_7_4kw.asm                                                        PAGE    3

     111              
     112              
     113              $C$DW$12        .dwtag  DW_TAG_subprogram
     114                      .dwattr $C$DW$12, DW_AT_name("TTPLPFC_globalVariablesInit")
     115                      .dwattr $C$DW$12, DW_AT_linkage_name("TTPLPFC_globalVariablesInit")
     116                      .dwattr $C$DW$12, DW_AT_declaration
     117                      .dwattr $C$DW$12, DW_AT_external
     118                      .dwattr $C$DW$12, DW_AT_decl_file("C:/Users/gerar/workspace_v12/7.4kW_OBC_F28003x/ttplpfc/ttplpfc.h")
     119                      .dwattr $C$DW$12, DW_AT_decl_line(0x24b)
     120                      .dwattr $C$DW$12, DW_AT_decl_column(0x06)
     121                      .dwendtag $C$DW$12
     122              
     123              
     124              $C$DW$13        .dwtag  DW_TAG_subprogram
     125                      .dwattr $C$DW$13, DW_AT_name("TTPLPFC_setLabIndicatorVariable")
     126                      .dwattr $C$DW$13, DW_AT_linkage_name("TTPLPFC_setLabIndicatorVariable")
     127                      .dwattr $C$DW$13, DW_AT_declaration
     128                      .dwattr $C$DW$13, DW_AT_external
     129                      .dwattr $C$DW$13, DW_AT_decl_file("C:/Users/gerar/workspace_v12/7.4kW_OBC_F28003x/ttplpfc/ttplpfc.h")
     130                      .dwattr $C$DW$13, DW_AT_decl_line(0x255)
     131                      .dwattr $C$DW$13, DW_AT_decl_column(0x06)
     132                      .dwendtag $C$DW$13
     133              
     134              
     135              $C$DW$14        .dwtag  DW_TAG_subprogram
     136                      .dwattr $C$DW$14, DW_AT_name("CLLLC_initGlobalVariables")
     137                      .dwattr $C$DW$14, DW_AT_linkage_name("CLLLC_initGlobalVariables")
     138                      .dwattr $C$DW$14, DW_AT_declaration
     139                      .dwattr $C$DW$14, DW_AT_external
     140                      .dwattr $C$DW$14, DW_AT_decl_file("C:/Users/gerar/workspace_v12/7.4kW_OBC_F28003x/clllc/clllc.h")
     141                      .dwattr $C$DW$14, DW_AT_decl_line(0xa3)
     142                      .dwattr $C$DW$14, DW_AT_decl_column(0x06)
     143                      .dwendtag $C$DW$14
     144              
     145              
     146              $C$DW$15        .dwtag  DW_TAG_subprogram
     147                      .dwattr $C$DW$15, DW_AT_name("CLLLC_setBuildLevelIndicatorVariable")
     148                      .dwattr $C$DW$15, DW_AT_linkage_name("CLLLC_setBuildLevelIndicatorVariable")
     149                      .dwattr $C$DW$15, DW_AT_declaration
     150                      .dwattr $C$DW$15, DW_AT_external
     151                      .dwattr $C$DW$15, DW_AT_decl_file("C:/Users/gerar/workspace_v12/7.4kW_OBC_F28003x/clllc/clllc.h")
     152                      .dwattr $C$DW$15, DW_AT_decl_line(0xb3)
     153                      .dwattr $C$DW$15, DW_AT_decl_column(0x06)
     154                      .dwendtag $C$DW$15
     155              
     156              
     157              $C$DW$16        .dwtag  DW_TAG_subprogram
     158                      .dwattr $C$DW$16, DW_AT_name("CLLLC_HAL_disablePWMClkCounting")
     159                      .dwattr $C$DW$16, DW_AT_linkage_name("CLLLC_HAL_disablePWMClkCounting")
     160                      .dwattr $C$DW$16, DW_AT_declaration
     161                      .dwattr $C$DW$16, DW_AT_external
     162                      .dwattr $C$DW$16, DW_AT_decl_file("C:\Users\gerar\workspace_v12\7.4kW_OBC_F28003x\clllc\clllc_hal.h")
     163                      .dwattr $C$DW$16, DW_AT_decl_line(0x6c)
     164                      .dwattr $C$DW$16, DW_AT_decl_column(0x06)
     165                      .dwendtag $C$DW$16
TMS320C2000 Assembler PC v22.6.0 Tue Dec 20 15:55:14 2022

Copyright (c) 1996-2018 Texas Instruments Incorporated
obc_7_4kw.asm                                                        PAGE    4

     166              
     167              
     168              $C$DW$17        .dwtag  DW_TAG_subprogram
     169                      .dwattr $C$DW$17, DW_AT_name("CLLLC_HAL_enablePWMClkCounting")
     170                      .dwattr $C$DW$17, DW_AT_linkage_name("CLLLC_HAL_enablePWMClkCounting")
     171                      .dwattr $C$DW$17, DW_AT_declaration
     172                      .dwattr $C$DW$17, DW_AT_external
     173                      .dwattr $C$DW$17, DW_AT_decl_file("C:\Users\gerar\workspace_v12\7.4kW_OBC_F28003x\clllc\clllc_hal.h")
     174                      .dwattr $C$DW$17, DW_AT_decl_line(0x6d)
     175                      .dwattr $C$DW$17, DW_AT_decl_column(0x06)
     176                      .dwendtag $C$DW$17
     177              
     178              
     179              $C$DW$18        .dwtag  DW_TAG_subprogram
     180                      .dwattr $C$DW$18, DW_AT_name("CLLLC_HAL_setupSynchronousRectificationAction")
     181                      .dwattr $C$DW$18, DW_AT_linkage_name("CLLLC_HAL_setupSynchronousRectificationAction")
     182                      .dwattr $C$DW$18, DW_AT_declaration
     183                      .dwattr $C$DW$18, DW_AT_external
     184                      .dwattr $C$DW$18, DW_AT_decl_file("C:\Users\gerar\workspace_v12\7.4kW_OBC_F28003x\clllc\clllc_hal.h")
     185                      .dwattr $C$DW$18, DW_AT_decl_line(0x47)
     186                      .dwattr $C$DW$18, DW_AT_decl_column(0x06)
     187              $C$DW$19        .dwtag  DW_TAG_formal_parameter
     188                      .dwattr $C$DW$19, DW_AT_type(*$C$DW$T$48)
     189              
     190                      .dwendtag $C$DW$18
     191              
     192              
     193              $C$DW$20        .dwtag  DW_TAG_subprogram
     194                      .dwattr $C$DW$20, DW_AT_name("CLLLC_HAL_setupSynchronousRectificationActionDebug")
     195                      .dwattr $C$DW$20, DW_AT_linkage_name("CLLLC_HAL_setupSynchronousRectificationActionDebug")
     196                      .dwattr $C$DW$20, DW_AT_declaration
     197                      .dwattr $C$DW$20, DW_AT_external
     198                      .dwattr $C$DW$20, DW_AT_decl_file("C:\Users\gerar\workspace_v12\7.4kW_OBC_F28003x\clllc\clllc_hal.h")
     199                      .dwattr $C$DW$20, DW_AT_decl_line(0x48)
     200                      .dwattr $C$DW$20, DW_AT_decl_column(0x06)
     201              $C$DW$21        .dwtag  DW_TAG_formal_parameter
     202                      .dwattr $C$DW$21, DW_AT_type(*$C$DW$T$48)
     203              
     204                      .dwendtag $C$DW$20
     205              
     206              
     207              $C$DW$22        .dwtag  DW_TAG_subprogram
     208                      .dwattr $C$DW$22, DW_AT_name("TTPLPFC_HAL_setupPWM")
     209                      .dwattr $C$DW$22, DW_AT_linkage_name("TTPLPFC_HAL_setupPWM")
     210                      .dwattr $C$DW$22, DW_AT_declaration
     211                      .dwattr $C$DW$22, DW_AT_external
     212                      .dwattr $C$DW$22, DW_AT_decl_file("C:\Users\gerar\workspace_v12\7.4kW_OBC_F28003x\ttplpfc\ttplpfc_hal
     213                      .dwattr $C$DW$22, DW_AT_decl_line(0x40)
     214                      .dwattr $C$DW$22, DW_AT_decl_column(0x06)
     215              $C$DW$23        .dwtag  DW_TAG_formal_parameter
     216                      .dwattr $C$DW$23, DW_AT_type(*$C$DW$T$48)
     217              
     218              $C$DW$24        .dwtag  DW_TAG_formal_parameter
     219                      .dwattr $C$DW$24, DW_AT_type(*$C$DW$T$48)
     220              
TMS320C2000 Assembler PC v22.6.0 Tue Dec 20 15:55:14 2022

Copyright (c) 1996-2018 Texas Instruments Incorporated
obc_7_4kw.asm                                                        PAGE    5

     221              $C$DW$25        .dwtag  DW_TAG_formal_parameter
     222                      .dwattr $C$DW$25, DW_AT_type(*$C$DW$T$48)
     223              
     224                      .dwendtag $C$DW$22
     225              
     226              
     227              $C$DW$26        .dwtag  DW_TAG_subprogram
     228                      .dwattr $C$DW$26, DW_AT_name("TTPLPFC_HAL_setPinsAsPWM")
     229                      .dwattr $C$DW$26, DW_AT_linkage_name("TTPLPFC_HAL_setPinsAsPWM")
     230                      .dwattr $C$DW$26, DW_AT_declaration
     231                      .dwattr $C$DW$26, DW_AT_external
     232                      .dwattr $C$DW$26, DW_AT_decl_file("C:\Users\gerar\workspace_v12\7.4kW_OBC_F28003x\ttplpfc\ttplpfc_hal
     233                      .dwattr $C$DW$26, DW_AT_decl_line(0x64)
     234                      .dwattr $C$DW$26, DW_AT_decl_column(0x06)
     235                      .dwendtag $C$DW$26
     236              
     237              
     238              $C$DW$27        .dwtag  DW_TAG_subprogram
     239                      .dwattr $C$DW$27, DW_AT_name("CLLLC_HAL_setupPWM")
     240                      .dwattr $C$DW$27, DW_AT_linkage_name("CLLLC_HAL_setupPWM")
     241                      .dwattr $C$DW$27, DW_AT_declaration
     242                      .dwattr $C$DW$27, DW_AT_external
     243                      .dwattr $C$DW$27, DW_AT_decl_file("C:\Users\gerar\workspace_v12\7.4kW_OBC_F28003x\clllc\clllc_hal.h")
     244                      .dwattr $C$DW$27, DW_AT_decl_line(0x5d)
     245                      .dwattr $C$DW$27, DW_AT_decl_column(0x06)
     246              $C$DW$28        .dwtag  DW_TAG_formal_parameter
     247                      .dwattr $C$DW$28, DW_AT_type(*$C$DW$T$48)
     248              
     249                      .dwendtag $C$DW$27
     250              
     251              
     252              $C$DW$29        .dwtag  DW_TAG_subprogram
     253                      .dwattr $C$DW$29, DW_AT_name("CLLLC_HAL_setupPWMpins")
     254                      .dwattr $C$DW$29, DW_AT_linkage_name("CLLLC_HAL_setupPWMpins")
     255                      .dwattr $C$DW$29, DW_AT_declaration
     256                      .dwattr $C$DW$29, DW_AT_external
     257                      .dwattr $C$DW$29, DW_AT_decl_file("C:\Users\gerar\workspace_v12\7.4kW_OBC_F28003x\clllc\clllc_hal.h")
     258                      .dwattr $C$DW$29, DW_AT_decl_line(0x5b)
     259                      .dwattr $C$DW$29, DW_AT_decl_column(0x06)
     260              $C$DW$30        .dwtag  DW_TAG_formal_parameter
     261                      .dwattr $C$DW$30, DW_AT_type(*$C$DW$T$48)
     262              
     263                      .dwendtag $C$DW$29
     264              
     265              
     266              $C$DW$31        .dwtag  DW_TAG_subprogram
     267                      .dwattr $C$DW$31, DW_AT_name("TTPLPFC_HAL_setupADC")
     268                      .dwattr $C$DW$31, DW_AT_linkage_name("TTPLPFC_HAL_setupADC")
     269                      .dwattr $C$DW$31, DW_AT_declaration
     270                      .dwattr $C$DW$31, DW_AT_external
     271                      .dwattr $C$DW$31, DW_AT_decl_file("C:\Users\gerar\workspace_v12\7.4kW_OBC_F28003x\ttplpfc\ttplpfc_hal
     272                      .dwattr $C$DW$31, DW_AT_decl_line(0x43)
     273                      .dwattr $C$DW$31, DW_AT_decl_column(0x06)
     274                      .dwendtag $C$DW$31
     275              
TMS320C2000 Assembler PC v22.6.0 Tue Dec 20 15:55:14 2022

Copyright (c) 1996-2018 Texas Instruments Incorporated
obc_7_4kw.asm                                                        PAGE    6

     276              
     277              $C$DW$32        .dwtag  DW_TAG_subprogram
     278                      .dwattr $C$DW$32, DW_AT_name("TTPLPFC_HAL_setupTrigForADC")
     279                      .dwattr $C$DW$32, DW_AT_linkage_name("TTPLPFC_HAL_setupTrigForADC")
     280                      .dwattr $C$DW$32, DW_AT_declaration
     281                      .dwattr $C$DW$32, DW_AT_external
     282                      .dwattr $C$DW$32, DW_AT_decl_file("C:\Users\gerar\workspace_v12\7.4kW_OBC_F28003x\ttplpfc\ttplpfc_hal
     283                      .dwattr $C$DW$32, DW_AT_decl_line(0x57)
     284                      .dwattr $C$DW$32, DW_AT_decl_column(0x06)
     285                      .dwendtag $C$DW$32
     286              
     287              
     288              $C$DW$33        .dwtag  DW_TAG_subprogram
     289                      .dwattr $C$DW$33, DW_AT_name("CLLLC_HAL_setupADC")
     290                      .dwattr $C$DW$33, DW_AT_linkage_name("CLLLC_HAL_setupADC")
     291                      .dwattr $C$DW$33, DW_AT_declaration
     292                      .dwattr $C$DW$33, DW_AT_external
     293                      .dwattr $C$DW$33, DW_AT_decl_file("C:\Users\gerar\workspace_v12\7.4kW_OBC_F28003x\clllc\clllc_hal.h")
     294                      .dwattr $C$DW$33, DW_AT_decl_line(0x44)
     295                      .dwattr $C$DW$33, DW_AT_decl_column(0x06)
     296                      .dwendtag $C$DW$33
     297              
     298              
     299              $C$DW$34        .dwtag  DW_TAG_subprogram
     300                      .dwattr $C$DW$34, DW_AT_name("CLLLC_HAL_setupTrigForADC")
     301                      .dwattr $C$DW$34, DW_AT_linkage_name("CLLLC_HAL_setupTrigForADC")
     302                      .dwattr $C$DW$34, DW_AT_declaration
     303                      .dwattr $C$DW$34, DW_AT_external
     304                      .dwattr $C$DW$34, DW_AT_decl_file("C:\Users\gerar\workspace_v12\7.4kW_OBC_F28003x\clllc\clllc_hal.h")
     305                      .dwattr $C$DW$34, DW_AT_decl_line(0x49)
     306                      .dwattr $C$DW$34, DW_AT_decl_column(0x06)
     307                      .dwendtag $C$DW$34
     308              
     309              
     310              $C$DW$35        .dwtag  DW_TAG_subprogram
     311                      .dwattr $C$DW$35, DW_AT_name("TTPLPFC_HAL_setupRelayGPIO")
     312                      .dwattr $C$DW$35, DW_AT_linkage_name("TTPLPFC_HAL_setupRelayGPIO")
     313                      .dwattr $C$DW$35, DW_AT_declaration
     314                      .dwattr $C$DW$35, DW_AT_external
     315                      .dwattr $C$DW$35, DW_AT_decl_file("C:\Users\gerar\workspace_v12\7.4kW_OBC_F28003x\ttplpfc\ttplpfc_hal
     316                      .dwattr $C$DW$35, DW_AT_decl_line(0x52)
     317                      .dwattr $C$DW$35, DW_AT_decl_column(0x06)
     318                      .dwendtag $C$DW$35
     319              
     320              
     321              $C$DW$36        .dwtag  DW_TAG_subprogram
     322                      .dwattr $C$DW$36, DW_AT_name("CLLLC_HAL_setupGPIOs")
     323                      .dwattr $C$DW$36, DW_AT_linkage_name("CLLLC_HAL_setupGPIOs")
     324                      .dwattr $C$DW$36, DW_AT_declaration
     325                      .dwattr $C$DW$36, DW_AT_external
     326                      .dwattr $C$DW$36, DW_AT_decl_file("C:\Users\gerar\workspace_v12\7.4kW_OBC_F28003x\clllc\clllc_hal.h")
     327                      .dwattr $C$DW$36, DW_AT_decl_line(0x4a)
     328                      .dwattr $C$DW$36, DW_AT_decl_column(0x06)
     329                      .dwendtag $C$DW$36
     330              
TMS320C2000 Assembler PC v22.6.0 Tue Dec 20 15:55:14 2022

Copyright (c) 1996-2018 Texas Instruments Incorporated
obc_7_4kw.asm                                                        PAGE    7

     331              
     332              $C$DW$37        .dwtag  DW_TAG_subprogram
     333                      .dwattr $C$DW$37, DW_AT_name("CLLLC_HAL_setupECAPforProfilingCode")
     334                      .dwattr $C$DW$37, DW_AT_linkage_name("CLLLC_HAL_setupECAPforProfilingCode")
     335                      .dwattr $C$DW$37, DW_AT_declaration
     336                      .dwattr $C$DW$37, DW_AT_external
     337                      .dwattr $C$DW$37, DW_AT_decl_file("C:\Users\gerar\workspace_v12\7.4kW_OBC_F28003x\clllc\clllc_hal.h")
     338                      .dwattr $C$DW$37, DW_AT_decl_line(0x4f)
     339                      .dwattr $C$DW$37, DW_AT_decl_column(0x06)
     340                      .dwendtag $C$DW$37
     341              
     342              
     343              $C$DW$38        .dwtag  DW_TAG_subprogram
     344                      .dwattr $C$DW$38, DW_AT_name("CLLLC_HAL_setupECAPforGaNTemp")
     345                      .dwattr $C$DW$38, DW_AT_linkage_name("CLLLC_HAL_setupECAPforGaNTemp")
     346                      .dwattr $C$DW$38, DW_AT_declaration
     347                      .dwattr $C$DW$38, DW_AT_external
     348                      .dwattr $C$DW$38, DW_AT_decl_file("C:\Users\gerar\workspace_v12\7.4kW_OBC_F28003x\clllc\clllc_hal.h")
     349                      .dwattr $C$DW$38, DW_AT_decl_line(0x50)
     350                      .dwattr $C$DW$38, DW_AT_decl_column(0x06)
     351                      .dwendtag $C$DW$38
     352              
     353              
     354              $C$DW$39        .dwtag  DW_TAG_subprogram
     355                      .dwattr $C$DW$39, DW_AT_name("TTPLPFC_HAL_setupBoardProtection")
     356                      .dwattr $C$DW$39, DW_AT_linkage_name("TTPLPFC_HAL_setupBoardProtection")
     357                      .dwattr $C$DW$39, DW_AT_declaration
     358                      .dwattr $C$DW$39, DW_AT_external
     359                      .dwattr $C$DW$39, DW_AT_decl_file("C:\Users\gerar\workspace_v12\7.4kW_OBC_F28003x\ttplpfc\ttplpfc_hal
     360                      .dwattr $C$DW$39, DW_AT_decl_line(0x47)
     361                      .dwattr $C$DW$39, DW_AT_decl_column(0x06)
     362              $C$DW$40        .dwtag  DW_TAG_formal_parameter
     363                      .dwattr $C$DW$40, DW_AT_type(*$C$DW$T$57)
     364              
     365              $C$DW$41        .dwtag  DW_TAG_formal_parameter
     366                      .dwattr $C$DW$41, DW_AT_type(*$C$DW$T$57)
     367              
     368                      .dwendtag $C$DW$39
     369              
     370              
     371              $C$DW$42        .dwtag  DW_TAG_subprogram
     372                      .dwattr $C$DW$42, DW_AT_name("CLLLC_HAL_setupBoardProtection")
     373                      .dwattr $C$DW$42, DW_AT_linkage_name("CLLLC_HAL_setupBoardProtection")
     374                      .dwattr $C$DW$42, DW_AT_declaration
     375                      .dwattr $C$DW$42, DW_AT_external
     376                      .dwattr $C$DW$42, DW_AT_decl_file("C:\Users\gerar\workspace_v12\7.4kW_OBC_F28003x\clllc\clllc_hal.h")
     377                      .dwattr $C$DW$42, DW_AT_decl_line(0x46)
     378                      .dwattr $C$DW$42, DW_AT_decl_column(0x06)
     379                      .dwendtag $C$DW$42
     380              
     381              
     382              $C$DW$43        .dwtag  DW_TAG_subprogram
     383                      .dwattr $C$DW$43, DW_AT_name("CLLLC_HAL_setupPWMinUpDownCountMode")
     384                      .dwattr $C$DW$43, DW_AT_linkage_name("CLLLC_HAL_setupPWMinUpDownCountMode")
     385                      .dwattr $C$DW$43, DW_AT_declaration
TMS320C2000 Assembler PC v22.6.0 Tue Dec 20 15:55:14 2022

Copyright (c) 1996-2018 Texas Instruments Incorporated
obc_7_4kw.asm                                                        PAGE    8

     386                      .dwattr $C$DW$43, DW_AT_external
     387                      .dwattr $C$DW$43, DW_AT_decl_file("C:\Users\gerar\workspace_v12\7.4kW_OBC_F28003x\clllc\clllc_hal.h")
     388                      .dwattr $C$DW$43, DW_AT_decl_line(0x7b)
     389                      .dwattr $C$DW$43, DW_AT_decl_column(0x06)
     390              $C$DW$44        .dwtag  DW_TAG_formal_parameter
     391                      .dwattr $C$DW$44, DW_AT_type(*$C$DW$T$43)
     392              
     393              $C$DW$45        .dwtag  DW_TAG_formal_parameter
     394                      .dwattr $C$DW$45, DW_AT_type(*$C$DW$T$57)
     395              
     396              $C$DW$46        .dwtag  DW_TAG_formal_parameter
     397                      .dwattr $C$DW$46, DW_AT_type(*$C$DW$T$57)
     398              
     399                      .dwendtag $C$DW$43
     400              
     401              
     402              $C$DW$47        .dwtag  DW_TAG_subprogram
     403                      .dwattr $C$DW$47, DW_AT_name("TTPLPFC_setupSFRA")
     404                      .dwattr $C$DW$47, DW_AT_linkage_name("TTPLPFC_setupSFRA")
     405                      .dwattr $C$DW$47, DW_AT_declaration
     406                      .dwattr $C$DW$47, DW_AT_external
     407                      .dwattr $C$DW$47, DW_AT_decl_file("C:/Users/gerar/workspace_v12/7.4kW_OBC_F28003x/ttplpfc/ttplpfc.h")
     408                      .dwattr $C$DW$47, DW_AT_decl_line(0x24a)
     409                      .dwattr $C$DW$47, DW_AT_decl_column(0x06)
     410                      .dwendtag $C$DW$47
     411              
     412              $C$DW$48        .dwtag  DW_TAG_variable
     413                      .dwattr $C$DW$48, DW_AT_name("CLLLC_powerFlowStateActive")
     414                      .dwattr $C$DW$48, DW_AT_linkage_name("CLLLC_powerFlowStateActive")
     415                      .dwattr $C$DW$48, DW_AT_type(*$C$DW$T$35)
     416                      .dwattr $C$DW$48, DW_AT_declaration
     417                      .dwattr $C$DW$48, DW_AT_external
     418                      .dwattr $C$DW$48, DW_AT_decl_file("C:/Users/gerar/workspace_v12/7.4kW_OBC_F28003x/clllc/clllc.h")
     419                      .dwattr $C$DW$48, DW_AT_decl_line(0x100)
     420                      .dwattr $C$DW$48, DW_AT_decl_column(0x27)
     421              
     422              $C$DW$49        .dwtag  DW_TAG_variable
     423                      .dwattr $C$DW$49, DW_AT_name("TTPLPFC_iL1_senseOffset_pu")
     424                      .dwattr $C$DW$49, DW_AT_linkage_name("TTPLPFC_iL1_senseOffset_pu")
     425                      .dwattr $C$DW$49, DW_AT_type(*$C$DW$T$57)
     426                      .dwattr $C$DW$49, DW_AT_declaration
     427                      .dwattr $C$DW$49, DW_AT_external
     428                      .dwattr $C$DW$49, DW_AT_decl_file("C:/Users/gerar/workspace_v12/7.4kW_OBC_F28003x/ttplpfc/ttplpfc.h")
     429                      .dwattr $C$DW$49, DW_AT_decl_line(0x146)
     430                      .dwattr $C$DW$49, DW_AT_decl_column(0x12)
     431              
     432              $C$DW$50        .dwtag  DW_TAG_variable
     433                      .dwattr $C$DW$50, DW_AT_name("TTPLPFC_iL2_senseOffset_pu")
     434                      .dwattr $C$DW$50, DW_AT_linkage_name("TTPLPFC_iL2_senseOffset_pu")
     435                      .dwattr $C$DW$50, DW_AT_type(*$C$DW$T$57)
     436                      .dwattr $C$DW$50, DW_AT_declaration
     437                      .dwattr $C$DW$50, DW_AT_external
     438                      .dwattr $C$DW$50, DW_AT_decl_file("C:/Users/gerar/workspace_v12/7.4kW_OBC_F28003x/ttplpfc/ttplpfc.h")
     439                      .dwattr $C$DW$50, DW_AT_decl_line(0x147)
     440                      .dwattr $C$DW$50, DW_AT_decl_column(0x12)
TMS320C2000 Assembler PC v22.6.0 Tue Dec 20 15:55:14 2022

Copyright (c) 1996-2018 Texas Instruments Incorporated
obc_7_4kw.asm                                                        PAGE    9

     441              
     442              $C$DW$51        .dwtag  DW_TAG_variable
     443                      .dwattr $C$DW$51, DW_AT_name("TTPLPFC_ac_vol_senseOffset_pu")
     444                      .dwattr $C$DW$51, DW_AT_linkage_name("TTPLPFC_ac_vol_senseOffset_pu")
     445                      .dwattr $C$DW$51, DW_AT_type(*$C$DW$T$57)
     446                      .dwattr $C$DW$51, DW_AT_declaration
     447                      .dwattr $C$DW$51, DW_AT_external
     448                      .dwattr $C$DW$51, DW_AT_decl_file("C:/Users/gerar/workspace_v12/7.4kW_OBC_F28003x/ttplpfc/ttplpfc.h")
     449                      .dwattr $C$DW$51, DW_AT_decl_line(0x169)
     450                      .dwattr $C$DW$51, DW_AT_decl_column(0x12)
     451              
     452              
     453              $C$DW$52        .dwtag  DW_TAG_subprogram
     454                      .dwattr $C$DW$52, DW_AT_name("__eallow")
     455                      .dwattr $C$DW$52, DW_AT_linkage_name("__eallow")
     456                      .dwattr $C$DW$52, DW_AT_declaration
     457                      .dwattr $C$DW$52, DW_AT_external
     458                      .dwendtag $C$DW$52
     459              
     460              
     461              $C$DW$53        .dwtag  DW_TAG_subprogram
     462                      .dwattr $C$DW$53, DW_AT_name("__edis")
     463                      .dwattr $C$DW$53, DW_AT_linkage_name("__edis")
     464                      .dwattr $C$DW$53, DW_AT_declaration
     465                      .dwattr $C$DW$53, DW_AT_external
     466                      .dwendtag $C$DW$53
     467              
     468              ;       C:\ti\ccs1210\ccs\tools\compiler\ti-cgt-c2000_22.6.0.LTS\bin\opt2000.exe C:\\Users\\gerar\\AppData\\L
     469              ;       C:\ti\ccs1210\ccs\tools\compiler\ti-cgt-c2000_22.6.0.LTS\bin\acia2000.exe -@C:\\Users\\gerar\\AppData
     470 00000000               .sect   ".text:__signbitl"
     471                      .clink
     472                      .global ||__signbitl||
     473              
     474              $C$DW$54        .dwtag  DW_TAG_subprogram
     475                      .dwattr $C$DW$54, DW_AT_name("__signbitl")
     476                      .dwattr $C$DW$54, DW_AT_low_pc(||__signbitl||)
     477                      .dwattr $C$DW$54, DW_AT_high_pc(0x00)
     478                      .dwattr $C$DW$54, DW_AT_linkage_name("__signbitl")
     479                      .dwattr $C$DW$54, DW_AT_external
     480                      .dwattr $C$DW$54, DW_AT_type(*$C$DW$T$10)
     481                      .dwattr $C$DW$54, DW_AT_decl_file("C:/ti/ccs1210/ccs/tools/compiler/ti-cgt-c2000_22.6.0.LTS/include/_
     482                      .dwattr $C$DW$54, DW_AT_decl_line(0x16f)
     483                      .dwattr $C$DW$54, DW_AT_decl_column(0x18)
     484                      .dwattr $C$DW$54, DW_AT_TI_max_frame_size(-6)
     485                      .dwpsn  file "C:/ti/ccs1210/ccs/tools/compiler/ti-cgt-c2000_22.6.0.LTS/include/_defs.h",line 368,colu
     486              
     487                      .dwfde $C$DW$CIE, ||__signbitl||
     488              $C$DW$55        .dwtag  DW_TAG_formal_parameter
     489                      .dwattr $C$DW$55, DW_AT_name("e")
     490                      .dwattr $C$DW$55, DW_AT_type(*$C$DW$T$18)
     491                      .dwattr $C$DW$55, DW_AT_location[DW_OP_regx 0x29]
     492              
     493              
     494              ;***************************************************************
     495              ;* FNAME: __signbitl                    FR SIZE:   4           *
TMS320C2000 Assembler PC v22.6.0 Tue Dec 20 15:55:14 2022

Copyright (c) 1996-2018 Texas Instruments Incorporated
obc_7_4kw.asm                                                        PAGE   10

     496              ;*                                                             *
     497              ;* FUNCTION ENVIRONMENT                                        *
     498              ;*                                                             *
     499              ;* FUNCTION PROPERTIES                                         *
     500              ;*                            4 Parameter,  0 Auto,  0 SOE     *
     501              ;***************************************************************
     502              
     503 00000000       ||__signbitl||:
     504                      .dwcfi  cfa_offset, -2
     505                      .dwcfi  save_reg_to_mem, 26, 0
     506 00000000 FE04          ADDB      SP,#4                 ; [CPU_ARAU] 
     507                      .dwcfi  cfa_offset, -6
     508                      .dwpsn  file "C:/ti/ccs1210/ccs/tools/compiler/ti-cgt-c2000_22.6.0.LTS/include/_defs.h",line 368,colu
     509 00000001 BFAB          MOV32     P,R0L                 ; [CPU_FPU] |368| 
         00000002 0F10 
     510 00000003 BE00          MOVB      XAR6,#0               ; [CPU_ALU] |368| 
     511 00000004 BFA9          MOV32     ACC,R0H               ; [CPU_FPU] |368| 
         00000005 0F12 
     512 00000006 18AB          AND       PL,#0                 ; [CPU_ALU] |368| 
         00000007 0000 
     513 00000008 18AA          AND       PH,#0                 ; [CPU_ALU] |368| 
         00000009 0000 
     514 0000000a C244          MOVL      *-SP[4],XAR6          ; [CPU_ALU] |368| 
     515 0000000b 9000          ANDB      AL,#0                 ; [CPU_ALU] |368| 
     516 0000000c 18A8          AND       AH,#32768             ; [CPU_ALU] |368| 
         0000000d 8000 
     517 0000000e 2B42          MOV       *-SP[2],#0            ; [CPU_FPU] |368| 
     518 0000000f 2B41          MOV       *-SP[1],#0            ; [CPU_FPU] |368| 
     519              $C$DW$56        .dwtag  DW_TAG_TI_branch
     520                      .dwattr $C$DW$56, DW_AT_low_pc(0x00)
     521                      .dwattr $C$DW$56, DW_AT_name("__c28xabi_cmpull")
     522                      .dwattr $C$DW$56, DW_AT_TI_call
     523              
     524 00000010 7640!         LCR       #||__c28xabi_cmpull|| ; [CPU_ALU] |368| 
         00000011 0000 
     525                      ; call occurs [#||__c28xabi_cmpull||] ; [] |368| 
     526 00000012 9B00          MOVB      AH,#0                 ; [CPU_ALU] |368| 
     527 00000013 5200          CMPB      AL,#0                 ; [CPU_ALU] |368| 
     528 00000014 56B0          MOVB      AH,#1,NEQ             ; [CPU_ALU] |368| 
         00000015 01A8 
     529 00000016 FE84          SUBB      SP,#4                 ; [CPU_ARAU] 
     530                      .dwcfi  cfa_offset, -2
     531 00000017 92A8          MOV       AL,AH                 ; [CPU_ALU] |368| 
     532              $C$DW$57        .dwtag  DW_TAG_TI_branch
     533                      .dwattr $C$DW$57, DW_AT_low_pc(0x00)
     534                      .dwattr $C$DW$57, DW_AT_TI_return
     535              
     536 00000018 0006          LRETR     ; [CPU_ALU] 
     537                      ; return occurs ; [] 
     538                      .dwattr $C$DW$54, DW_AT_TI_end_file("C:/ti/ccs1210/ccs/tools/compiler/ti-cgt-c2000_22.6.0.LTS/include
     539                      .dwattr $C$DW$54, DW_AT_TI_end_line(0x170)
     540                      .dwattr $C$DW$54, DW_AT_TI_end_column(0x2b)
     541                      .dwendentry
     542                      .dwendtag $C$DW$54
     543              
TMS320C2000 Assembler PC v22.6.0 Tue Dec 20 15:55:14 2022

Copyright (c) 1996-2018 Texas Instruments Incorporated
obc_7_4kw.asm                                                        PAGE   11

     544 00000000               .sect   ".text:__signbitf"
     545                      .clink
     546                      .global ||__signbitf||
     547              
     548              $C$DW$58        .dwtag  DW_TAG_subprogram
     549                      .dwattr $C$DW$58, DW_AT_name("__signbitf")
     550                      .dwattr $C$DW$58, DW_AT_low_pc(||__signbitf||)
     551                      .dwattr $C$DW$58, DW_AT_high_pc(0x00)
     552                      .dwattr $C$DW$58, DW_AT_linkage_name("__signbitf")
     553                      .dwattr $C$DW$58, DW_AT_external
     554                      .dwattr $C$DW$58, DW_AT_type(*$C$DW$T$10)
     555                      .dwattr $C$DW$58, DW_AT_decl_file("C:/ti/ccs1210/ccs/tools/compiler/ti-cgt-c2000_22.6.0.LTS/include/_
     556                      .dwattr $C$DW$58, DW_AT_decl_line(0x16d)
     557                      .dwattr $C$DW$58, DW_AT_decl_column(0x18)
     558                      .dwattr $C$DW$58, DW_AT_TI_max_frame_size(-2)
     559                      .dwpsn  file "C:/ti/ccs1210/ccs/tools/compiler/ti-cgt-c2000_22.6.0.LTS/include/_defs.h",line 366,colu
     560              
     561                      .dwfde $C$DW$CIE, ||__signbitf||
     562              $C$DW$59        .dwtag  DW_TAG_formal_parameter
     563                      .dwattr $C$DW$59, DW_AT_name("f")
     564                      .dwattr $C$DW$59, DW_AT_type(*$C$DW$T$16)
     565                      .dwattr $C$DW$59, DW_AT_location[DW_OP_regx 0x2b]
     566              
     567              
     568              ;***************************************************************
     569              ;* FNAME: __signbitf                    FR SIZE:   0           *
     570              ;*                                                             *
     571              ;* FUNCTION ENVIRONMENT                                        *
     572              ;*                                                             *
     573              ;* FUNCTION PROPERTIES                                         *
     574              ;*                            0 Parameter,  0 Auto,  0 SOE     *
     575              ;***************************************************************
     576              
     577              ||__signbitf||:
     578              ;* R0    assigned to f
     579              $C$DW$60        .dwtag  DW_TAG_variable
     580                      .dwattr $C$DW$60, DW_AT_name("f")
     581                      .dwattr $C$DW$60, DW_AT_type(*$C$DW$T$75)
     582                      .dwattr $C$DW$60, DW_AT_location[DW_OP_regx 0x2b]
     583              
     584                      .dwcfi  cfa_offset, -2
     585                      .dwcfi  save_reg_to_mem, 26, 0
     586                      .dwpsn  file "C:/ti/ccs1210/ccs/tools/compiler/ti-cgt-c2000_22.6.0.LTS/include/_defs.h",line 366,colu
     587 00000000 BFA9          MOV32     ACC,R0H               ; [CPU_FPU] |366| 
         00000001 0F12 
     588 00000002 BE00          MOVB      XAR6,#0               ; [CPU_ALU] |366| 
     589 00000003 9000          ANDB      AL,#0                 ; [CPU_ALU] |366| 
     590 00000004 18A8          AND       AH,#32768             ; [CPU_ALU] |366| 
         00000005 8000 
     591 00000006 FF58          TEST      ACC                   ; [CPU_ALU] |366| 
     592 00000007 56B0          MOVB      XAR6,#1,NEQ           ; [CPU_ALU] |366| 
         00000008 01A6 
     593 00000009 92A6          MOV       AL,AR6                ; [CPU_ALU] |366| 
     594              $C$DW$61        .dwtag  DW_TAG_TI_branch
     595                      .dwattr $C$DW$61, DW_AT_low_pc(0x00)
TMS320C2000 Assembler PC v22.6.0 Tue Dec 20 15:55:14 2022

Copyright (c) 1996-2018 Texas Instruments Incorporated
obc_7_4kw.asm                                                        PAGE   12

     596                      .dwattr $C$DW$61, DW_AT_TI_return
     597              
     598 0000000a 0006          LRETR     ; [CPU_ALU] 
     599                      ; return occurs ; [] 
     600                      .dwattr $C$DW$58, DW_AT_TI_end_file("C:/ti/ccs1210/ccs/tools/compiler/ti-cgt-c2000_22.6.0.LTS/include
     601                      .dwattr $C$DW$58, DW_AT_TI_end_line(0x16e)
     602                      .dwattr $C$DW$58, DW_AT_TI_end_column(0x29)
     603                      .dwendentry
     604                      .dwendtag $C$DW$58
     605              
     606 00000000               .sect   ".text:__signbit"
     607                      .clink
     608                      .global ||__signbit||
     609              
     610              $C$DW$62        .dwtag  DW_TAG_subprogram
     611                      .dwattr $C$DW$62, DW_AT_name("__signbit")
     612                      .dwattr $C$DW$62, DW_AT_low_pc(||__signbit||)
     613                      .dwattr $C$DW$62, DW_AT_high_pc(0x00)
     614                      .dwattr $C$DW$62, DW_AT_linkage_name("__signbit")
     615                      .dwattr $C$DW$62, DW_AT_external
     616                      .dwattr $C$DW$62, DW_AT_type(*$C$DW$T$10)
     617                      .dwattr $C$DW$62, DW_AT_decl_file("C:/ti/ccs1210/ccs/tools/compiler/ti-cgt-c2000_22.6.0.LTS/include/_
     618                      .dwattr $C$DW$62, DW_AT_decl_line(0x16b)
     619                      .dwattr $C$DW$62, DW_AT_decl_column(0x18)
     620                      .dwattr $C$DW$62, DW_AT_TI_max_frame_size(-6)
     621                      .dwpsn  file "C:/ti/ccs1210/ccs/tools/compiler/ti-cgt-c2000_22.6.0.LTS/include/_defs.h",line 364,colu
     622              
     623                      .dwfde $C$DW$CIE, ||__signbit||
     624              $C$DW$63        .dwtag  DW_TAG_formal_parameter
     625                      .dwattr $C$DW$63, DW_AT_name("d")
     626                      .dwattr $C$DW$63, DW_AT_type(*$C$DW$T$17)
     627                      .dwattr $C$DW$63, DW_AT_location[DW_OP_regx 0x29]
     628              
     629              
     630              ;***************************************************************
     631              ;* FNAME: __signbit                     FR SIZE:   4           *
     632              ;*                                                             *
     633              ;* FUNCTION ENVIRONMENT                                        *
     634              ;*                                                             *
     635              ;* FUNCTION PROPERTIES                                         *
     636              ;*                            4 Parameter,  0 Auto,  0 SOE     *
     637              ;***************************************************************
     638              
     639 00000000       ||__signbit||:
     640                      .dwcfi  cfa_offset, -2
     641                      .dwcfi  save_reg_to_mem, 26, 0
     642 00000000 FE04          ADDB      SP,#4                 ; [CPU_ARAU] 
     643                      .dwcfi  cfa_offset, -6
     644                      .dwpsn  file "C:/ti/ccs1210/ccs/tools/compiler/ti-cgt-c2000_22.6.0.LTS/include/_defs.h",line 364,colu
     645 00000001 BFAB          MOV32     P,R0L                 ; [CPU_FPU] |364| 
         00000002 0F10 
     646 00000003 BE00          MOVB      XAR6,#0               ; [CPU_ALU] |364| 
     647 00000004 BFA9          MOV32     ACC,R0H               ; [CPU_FPU] |364| 
         00000005 0F12 
     648 00000006 18AB          AND       PL,#0                 ; [CPU_ALU] |364| 
TMS320C2000 Assembler PC v22.6.0 Tue Dec 20 15:55:14 2022

Copyright (c) 1996-2018 Texas Instruments Incorporated
obc_7_4kw.asm                                                        PAGE   13

         00000007 0000 
     649 00000008 18AA          AND       PH,#0                 ; [CPU_ALU] |364| 
         00000009 0000 
     650 0000000a C244          MOVL      *-SP[4],XAR6          ; [CPU_ALU] |364| 
     651 0000000b 9000          ANDB      AL,#0                 ; [CPU_ALU] |364| 
     652 0000000c 18A8          AND       AH,#32768             ; [CPU_ALU] |364| 
         0000000d 8000 
     653 0000000e 2B42          MOV       *-SP[2],#0            ; [CPU_FPU] |364| 
     654 0000000f 2B41          MOV       *-SP[1],#0            ; [CPU_FPU] |364| 
     655              $C$DW$64        .dwtag  DW_TAG_TI_branch
     656                      .dwattr $C$DW$64, DW_AT_low_pc(0x00)
     657                      .dwattr $C$DW$64, DW_AT_name("__c28xabi_cmpull")
     658                      .dwattr $C$DW$64, DW_AT_TI_call
     659              
     660 00000010 7640!         LCR       #||__c28xabi_cmpull|| ; [CPU_ALU] |364| 
         00000011 0000 
     661                      ; call occurs [#||__c28xabi_cmpull||] ; [] |364| 
     662 00000012 9B00          MOVB      AH,#0                 ; [CPU_ALU] |364| 
     663 00000013 5200          CMPB      AL,#0                 ; [CPU_ALU] |364| 
     664 00000014 56B0          MOVB      AH,#1,NEQ             ; [CPU_ALU] |364| 
         00000015 01A8 
     665 00000016 FE84          SUBB      SP,#4                 ; [CPU_ARAU] 
     666                      .dwcfi  cfa_offset, -2
     667 00000017 92A8          MOV       AL,AH                 ; [CPU_ALU] |364| 
     668              $C$DW$65        .dwtag  DW_TAG_TI_branch
     669                      .dwattr $C$DW$65, DW_AT_low_pc(0x00)
     670                      .dwattr $C$DW$65, DW_AT_TI_return
     671              
     672 00000018 0006          LRETR     ; [CPU_ALU] 
     673                      ; return occurs ; [] 
     674                      .dwattr $C$DW$62, DW_AT_TI_end_file("C:/ti/ccs1210/ccs/tools/compiler/ti-cgt-c2000_22.6.0.LTS/include
     675                      .dwattr $C$DW$62, DW_AT_TI_end_line(0x16c)
     676                      .dwattr $C$DW$62, DW_AT_TI_end_column(0x2a)
     677                      .dwendentry
     678                      .dwendtag $C$DW$62
     679              
     680 00000000               .sect   ".text:__relaxed_sqrtf"
     681                      .clink
     682                      .global ||__relaxed_sqrtf||
     683              
     684              $C$DW$66        .dwtag  DW_TAG_subprogram
     685                      .dwattr $C$DW$66, DW_AT_name("__relaxed_sqrtf")
     686                      .dwattr $C$DW$66, DW_AT_low_pc(||__relaxed_sqrtf||)
     687                      .dwattr $C$DW$66, DW_AT_high_pc(0x00)
     688                      .dwattr $C$DW$66, DW_AT_linkage_name("__relaxed_sqrtf")
     689                      .dwattr $C$DW$66, DW_AT_external
     690                      .dwattr $C$DW$66, DW_AT_type(*$C$DW$T$16)
     691                      .dwattr $C$DW$66, DW_AT_decl_file("C:/ti/ccs1210/ccs/tools/compiler/ti-cgt-c2000_22.6.0.LTS/include/m
     692                      .dwattr $C$DW$66, DW_AT_decl_line(0x103)
     693                      .dwattr $C$DW$66, DW_AT_decl_column(0x10)
     694                      .dwattr $C$DW$66, DW_AT_TI_max_frame_size(-2)
     695                      .dwpsn  file "C:/ti/ccs1210/ccs/tools/compiler/ti-cgt-c2000_22.6.0.LTS/include/math.h",line 260,colum
     696              
     697                      .dwfde $C$DW$CIE, ||__relaxed_sqrtf||
     698              $C$DW$67        .dwtag  DW_TAG_formal_parameter
TMS320C2000 Assembler PC v22.6.0 Tue Dec 20 15:55:14 2022

Copyright (c) 1996-2018 Texas Instruments Incorporated
obc_7_4kw.asm                                                        PAGE   14

     699                      .dwattr $C$DW$67, DW_AT_name("x")
     700                      .dwattr $C$DW$67, DW_AT_type(*$C$DW$T$16)
     701                      .dwattr $C$DW$67, DW_AT_location[DW_OP_regx 0x2b]
     702              
     703              
     704              ;***************************************************************
     705              ;* FNAME: __relaxed_sqrtf               FR SIZE:   0           *
     706              ;*                                                             *
     707              ;* FUNCTION ENVIRONMENT                                        *
     708              ;*                                                             *
     709              ;* FUNCTION PROPERTIES                                         *
     710              ;*                            0 Parameter,  0 Auto,  0 SOE     *
     711              ;***************************************************************
     712              
     713              ||__relaxed_sqrtf||:
     714              ;* R0    assigned to x
     715              $C$DW$68        .dwtag  DW_TAG_variable
     716                      .dwattr $C$DW$68, DW_AT_name("x")
     717                      .dwattr $C$DW$68, DW_AT_type(*$C$DW$T$75)
     718                      .dwattr $C$DW$68, DW_AT_location[DW_OP_regx 0x2b]
     719              
     720                      .dwcfi  cfa_offset, -2
     721                      .dwcfi  save_reg_to_mem, 26, 0
     722                      .dwpsn  file "C:/ti/ccs1210/ccs/tools/compiler/ti-cgt-c2000_22.6.0.LTS/include/math.h",line 261,colum
     723 00000000 E277          SQRTF32   R0H,R0H               ; [CPU_FPU] |261| 
         00000001 0000 
     724 00000002 7700          NOP       ; [CPU_ALU] 
     725 00000003 7700          NOP       ; [CPU_ALU] 
     726 00000004 7700          NOP       ; [CPU_ALU] 
     727              $C$DW$69        .dwtag  DW_TAG_TI_branch
     728                      .dwattr $C$DW$69, DW_AT_low_pc(0x00)
     729                      .dwattr $C$DW$69, DW_AT_TI_return
     730              
     731 00000005 0006          LRETR     ; [CPU_ALU] 
     732                      ; return occurs ; [] 
     733                      .dwattr $C$DW$66, DW_AT_TI_end_file("C:/ti/ccs1210/ccs/tools/compiler/ti-cgt-c2000_22.6.0.LTS/include
     734                      .dwattr $C$DW$66, DW_AT_TI_end_line(0x106)
     735                      .dwattr $C$DW$66, DW_AT_TI_end_column(0x01)
     736                      .dwendentry
     737                      .dwendtag $C$DW$66
     738              
     739 00000000               .sect   ".text:__relaxed_sinf"
     740                      .clink
     741                      .global ||__relaxed_sinf||
     742              
     743              $C$DW$70        .dwtag  DW_TAG_subprogram
     744                      .dwattr $C$DW$70, DW_AT_name("__relaxed_sinf")
     745                      .dwattr $C$DW$70, DW_AT_low_pc(||__relaxed_sinf||)
     746                      .dwattr $C$DW$70, DW_AT_high_pc(0x00)
     747                      .dwattr $C$DW$70, DW_AT_linkage_name("__relaxed_sinf")
     748                      .dwattr $C$DW$70, DW_AT_external
     749                      .dwattr $C$DW$70, DW_AT_type(*$C$DW$T$16)
     750                      .dwattr $C$DW$70, DW_AT_decl_file("C:/ti/ccs1210/ccs/tools/compiler/ti-cgt-c2000_22.6.0.LTS/include/m
     751                      .dwattr $C$DW$70, DW_AT_decl_line(0x108)
     752                      .dwattr $C$DW$70, DW_AT_decl_column(0x10)
TMS320C2000 Assembler PC v22.6.0 Tue Dec 20 15:55:14 2022

Copyright (c) 1996-2018 Texas Instruments Incorporated
obc_7_4kw.asm                                                        PAGE   15

     753                      .dwattr $C$DW$70, DW_AT_TI_max_frame_size(-2)
     754                      .dwpsn  file "C:/ti/ccs1210/ccs/tools/compiler/ti-cgt-c2000_22.6.0.LTS/include/math.h",line 265,colum
     755              
     756                      .dwfde $C$DW$CIE, ||__relaxed_sinf||
     757              $C$DW$71        .dwtag  DW_TAG_formal_parameter
     758                      .dwattr $C$DW$71, DW_AT_name("x")
     759                      .dwattr $C$DW$71, DW_AT_type(*$C$DW$T$16)
     760                      .dwattr $C$DW$71, DW_AT_location[DW_OP_regx 0x2b]
     761              
     762              
     763              ;***************************************************************
     764              ;* FNAME: __relaxed_sinf                FR SIZE:   0           *
     765              ;*                                                             *
     766              ;* FUNCTION ENVIRONMENT                                        *
     767              ;*                                                             *
     768              ;* FUNCTION PROPERTIES                                         *
     769              ;*                            0 Parameter,  0 Auto,  0 SOE     *
     770              ;***************************************************************
     771              
     772              ||__relaxed_sinf||:
     773              ;* R0    assigned to x
     774              $C$DW$72        .dwtag  DW_TAG_variable
     775                      .dwattr $C$DW$72, DW_AT_name("x")
     776                      .dwattr $C$DW$72, DW_AT_type(*$C$DW$T$75)
     777                      .dwattr $C$DW$72, DW_AT_location[DW_OP_regx 0x2b]
     778              
     779                      .dwcfi  cfa_offset, -2
     780                      .dwcfi  save_reg_to_mem, 26, 0
     781                      .dwpsn  file "C:/ti/ccs1210/ccs/tools/compiler/ti-cgt-c2000_22.6.0.LTS/include/math.h",line 266,colum
     782 00000000 E271          DIV2PIF32 R0H,R0H               ; [CPU_FPU] |266| 
         00000001 0000 
     783 00000002 7700          NOP       ; [CPU_ALU] 
     784 00000003 E278          SINPUF32  R0H,R0H               ; [CPU_FPU] |266| 
         00000004 0000 
     785 00000005 7700          NOP       ; [CPU_ALU] 
     786 00000006 7700          NOP       ; [CPU_ALU] 
     787              $C$DW$73        .dwtag  DW_TAG_TI_branch
     788                      .dwattr $C$DW$73, DW_AT_low_pc(0x00)
     789                      .dwattr $C$DW$73, DW_AT_TI_return
     790              
     791 00000007 0006          LRETR     ; [CPU_ALU] 
     792                      ; return occurs ; [] 
     793                      .dwattr $C$DW$70, DW_AT_TI_end_file("C:/ti/ccs1210/ccs/tools/compiler/ti-cgt-c2000_22.6.0.LTS/include
     794                      .dwattr $C$DW$70, DW_AT_TI_end_line(0x10b)
     795                      .dwattr $C$DW$70, DW_AT_TI_end_column(0x01)
     796                      .dwendentry
     797                      .dwendtag $C$DW$70
     798              
     799 00000000               .sect   ".text:__relaxed_fmodf"
     800                      .clink
     801                      .global ||__relaxed_fmodf||
     802              
     803              $C$DW$74        .dwtag  DW_TAG_subprogram
     804                      .dwattr $C$DW$74, DW_AT_name("__relaxed_fmodf")
     805                      .dwattr $C$DW$74, DW_AT_low_pc(||__relaxed_fmodf||)
TMS320C2000 Assembler PC v22.6.0 Tue Dec 20 15:55:14 2022

Copyright (c) 1996-2018 Texas Instruments Incorporated
obc_7_4kw.asm                                                        PAGE   16

     806                      .dwattr $C$DW$74, DW_AT_high_pc(0x00)
     807                      .dwattr $C$DW$74, DW_AT_linkage_name("__relaxed_fmodf")
     808                      .dwattr $C$DW$74, DW_AT_external
     809                      .dwattr $C$DW$74, DW_AT_type(*$C$DW$T$16)
     810                      .dwattr $C$DW$74, DW_AT_decl_file("C:/ti/ccs1210/ccs/tools/compiler/ti-cgt-c2000_22.6.0.LTS/include/m
     811                      .dwattr $C$DW$74, DW_AT_decl_line(0x11c)
     812                      .dwattr $C$DW$74, DW_AT_decl_column(0x10)
     813                      .dwattr $C$DW$74, DW_AT_TI_max_frame_size(-2)
     814                      .dwpsn  file "C:/ti/ccs1210/ccs/tools/compiler/ti-cgt-c2000_22.6.0.LTS/include/math.h",line 285,colum
     815              
     816                      .dwfde $C$DW$CIE, ||__relaxed_fmodf||
     817              $C$DW$75        .dwtag  DW_TAG_formal_parameter
     818                      .dwattr $C$DW$75, DW_AT_name("y")
     819                      .dwattr $C$DW$75, DW_AT_type(*$C$DW$T$16)
     820                      .dwattr $C$DW$75, DW_AT_location[DW_OP_regx 0x2b]
     821              
     822              $C$DW$76        .dwtag  DW_TAG_formal_parameter
     823                      .dwattr $C$DW$76, DW_AT_name("x")
     824                      .dwattr $C$DW$76, DW_AT_type(*$C$DW$T$16)
     825                      .dwattr $C$DW$76, DW_AT_location[DW_OP_regx 0x2f]
     826              
     827              
     828              ;***************************************************************
     829              ;* FNAME: __relaxed_fmodf               FR SIZE:   0           *
     830              ;*                                                             *
     831              ;* FUNCTION ENVIRONMENT                                        *
     832              ;*                                                             *
     833              ;* FUNCTION PROPERTIES                                         *
     834              ;*                            0 Parameter,  0 Auto,  0 SOE     *
     835              ;***************************************************************
     836              
     837              ||__relaxed_fmodf||:
     838              ;* R0    assigned to y
     839              $C$DW$77        .dwtag  DW_TAG_variable
     840                      .dwattr $C$DW$77, DW_AT_name("y")
     841                      .dwattr $C$DW$77, DW_AT_type(*$C$DW$T$75)
     842                      .dwattr $C$DW$77, DW_AT_location[DW_OP_regx 0x2b]
     843              
     844              ;* R1    assigned to x
     845              $C$DW$78        .dwtag  DW_TAG_variable
     846                      .dwattr $C$DW$78, DW_AT_name("x")
     847                      .dwattr $C$DW$78, DW_AT_type(*$C$DW$T$75)
     848                      .dwattr $C$DW$78, DW_AT_location[DW_OP_regx 0x2f]
     849              
     850                      .dwcfi  cfa_offset, -2
     851                      .dwcfi  save_reg_to_mem, 26, 0
     852                      .dwpsn  file "C:/ti/ccs1210/ccs/tools/compiler/ti-cgt-c2000_22.6.0.LTS/include/math.h",line 286,colum
     853 00000000 E274          DIVF32    R2H,R0H,R1H           ; [CPU_FPU] |286| 
         00000001 0042 
     854 00000002 7700          NOP       ; [CPU_ALU] 
     855 00000003 7700          NOP       ; [CPU_ALU] 
     856 00000004 7700          NOP       ; [CPU_ALU] 
     857 00000005 7700          NOP       ; [CPU_ALU] 
     858 00000006 E688          F32TOI32  R2H,R2H               ; [CPU_FPU] |286| 
         00000007 0012 
TMS320C2000 Assembler PC v22.6.0 Tue Dec 20 15:55:14 2022

Copyright (c) 1996-2018 Texas Instruments Incorporated
obc_7_4kw.asm                                                        PAGE   17

     859 00000008 7700          NOP       ; [CPU_ALU] 
     860 00000009 E689          I32TOF32  R2H,R2H               ; [CPU_FPU] |286| 
         0000000a 0012 
     861 0000000b 7700          NOP       ; [CPU_ALU] 
     862 0000000c E700          MPYF32    R1H,R1H,R2H           ; [CPU_FPU] |286| 
         0000000d 0089 
     863 0000000e 7700          NOP       ; [CPU_ALU] 
     864 0000000f E720          SUBF32    R0H,R0H,R1H           ; [CPU_FPU] |286| 
         00000010 0040 
     865              $C$DW$79        .dwtag  DW_TAG_TI_branch
     866                      .dwattr $C$DW$79, DW_AT_low_pc(0x00)
     867                      .dwattr $C$DW$79, DW_AT_TI_return
     868              
     869 00000011 0006          LRETR     ; [CPU_ALU] 
     870                      ; return occurs ; [] 
     871                      .dwattr $C$DW$74, DW_AT_TI_end_file("C:/ti/ccs1210/ccs/tools/compiler/ti-cgt-c2000_22.6.0.LTS/include
     872                      .dwattr $C$DW$74, DW_AT_TI_end_line(0x11f)
     873                      .dwattr $C$DW$74, DW_AT_TI_end_column(0x01)
     874                      .dwendentry
     875                      .dwendtag $C$DW$74
     876              
     877 00000000               .sect   ".text:__relaxed_fminf"
     878                      .clink
     879                      .global ||__relaxed_fminf||
     880              
     881              $C$DW$80        .dwtag  DW_TAG_subprogram
     882                      .dwattr $C$DW$80, DW_AT_name("__relaxed_fminf")
     883                      .dwattr $C$DW$80, DW_AT_low_pc(||__relaxed_fminf||)
     884                      .dwattr $C$DW$80, DW_AT_high_pc(0x00)
     885                      .dwattr $C$DW$80, DW_AT_linkage_name("__relaxed_fminf")
     886                      .dwattr $C$DW$80, DW_AT_external
     887                      .dwattr $C$DW$80, DW_AT_type(*$C$DW$T$16)
     888                      .dwattr $C$DW$80, DW_AT_decl_file("C:/ti/ccs1210/ccs/tools/compiler/ti-cgt-c2000_22.6.0.LTS/include/m
     889                      .dwattr $C$DW$80, DW_AT_decl_line(0xee)
     890                      .dwattr $C$DW$80, DW_AT_decl_column(0x10)
     891                      .dwattr $C$DW$80, DW_AT_TI_max_frame_size(-2)
     892                      .dwpsn  file "C:/ti/ccs1210/ccs/tools/compiler/ti-cgt-c2000_22.6.0.LTS/include/math.h",line 239,colum
     893              
     894                      .dwfde $C$DW$CIE, ||__relaxed_fminf||
     895              $C$DW$81        .dwtag  DW_TAG_formal_parameter
     896                      .dwattr $C$DW$81, DW_AT_name("x")
     897                      .dwattr $C$DW$81, DW_AT_type(*$C$DW$T$16)
     898                      .dwattr $C$DW$81, DW_AT_location[DW_OP_regx 0x2b]
     899              
     900              $C$DW$82        .dwtag  DW_TAG_formal_parameter
     901                      .dwattr $C$DW$82, DW_AT_name("y")
     902                      .dwattr $C$DW$82, DW_AT_type(*$C$DW$T$16)
     903                      .dwattr $C$DW$82, DW_AT_location[DW_OP_regx 0x2f]
     904              
     905              
     906              ;***************************************************************
     907              ;* FNAME: __relaxed_fminf               FR SIZE:   0           *
     908              ;*                                                             *
     909              ;* FUNCTION ENVIRONMENT                                        *
     910              ;*                                                             *
TMS320C2000 Assembler PC v22.6.0 Tue Dec 20 15:55:14 2022

Copyright (c) 1996-2018 Texas Instruments Incorporated
obc_7_4kw.asm                                                        PAGE   18

     911              ;* FUNCTION PROPERTIES                                         *
     912              ;*                            0 Parameter,  0 Auto,  0 SOE     *
     913              ;***************************************************************
     914              
     915              ||__relaxed_fminf||:
     916              ;* R1    assigned to y
     917              $C$DW$83        .dwtag  DW_TAG_variable
     918                      .dwattr $C$DW$83, DW_AT_name("y")
     919                      .dwattr $C$DW$83, DW_AT_type(*$C$DW$T$75)
     920                      .dwattr $C$DW$83, DW_AT_location[DW_OP_regx 0x2f]
     921              
     922                      .dwcfi  cfa_offset, -2
     923                      .dwcfi  save_reg_to_mem, 26, 0
     924                      .dwpsn  file "C:/ti/ccs1210/ccs/tools/compiler/ti-cgt-c2000_22.6.0.LTS/include/math.h",line 240,colum
     925 00000000 E697          MINF32    R0H,R1H               ; [CPU_FPU] |240| 
         00000001 0008 
     926              $C$DW$84        .dwtag  DW_TAG_TI_branch
     927                      .dwattr $C$DW$84, DW_AT_low_pc(0x00)
     928                      .dwattr $C$DW$84, DW_AT_TI_return
     929              
     930 00000002 0006          LRETR     ; [CPU_ALU] 
     931                      ; return occurs ; [] 
     932                      .dwattr $C$DW$80, DW_AT_TI_end_file("C:/ti/ccs1210/ccs/tools/compiler/ti-cgt-c2000_22.6.0.LTS/include
     933                      .dwattr $C$DW$80, DW_AT_TI_end_line(0xf1)
     934                      .dwattr $C$DW$80, DW_AT_TI_end_column(0x01)
     935                      .dwendentry
     936                      .dwendtag $C$DW$80
     937              
     938 00000000               .sect   ".text:__relaxed_fmaxf"
     939                      .clink
     940                      .global ||__relaxed_fmaxf||
     941              
     942              $C$DW$85        .dwtag  DW_TAG_subprogram
     943                      .dwattr $C$DW$85, DW_AT_name("__relaxed_fmaxf")
     944                      .dwattr $C$DW$85, DW_AT_low_pc(||__relaxed_fmaxf||)
     945                      .dwattr $C$DW$85, DW_AT_high_pc(0x00)
     946                      .dwattr $C$DW$85, DW_AT_linkage_name("__relaxed_fmaxf")
     947                      .dwattr $C$DW$85, DW_AT_external
     948                      .dwattr $C$DW$85, DW_AT_type(*$C$DW$T$16)
     949                      .dwattr $C$DW$85, DW_AT_decl_file("C:/ti/ccs1210/ccs/tools/compiler/ti-cgt-c2000_22.6.0.LTS/include/m
     950                      .dwattr $C$DW$85, DW_AT_decl_line(0xe8)
     951                      .dwattr $C$DW$85, DW_AT_decl_column(0x10)
     952                      .dwattr $C$DW$85, DW_AT_TI_max_frame_size(-2)
     953                      .dwpsn  file "C:/ti/ccs1210/ccs/tools/compiler/ti-cgt-c2000_22.6.0.LTS/include/math.h",line 233,colum
     954              
     955                      .dwfde $C$DW$CIE, ||__relaxed_fmaxf||
     956              $C$DW$86        .dwtag  DW_TAG_formal_parameter
     957                      .dwattr $C$DW$86, DW_AT_name("x")
     958                      .dwattr $C$DW$86, DW_AT_type(*$C$DW$T$16)
     959                      .dwattr $C$DW$86, DW_AT_location[DW_OP_regx 0x2b]
     960              
     961              $C$DW$87        .dwtag  DW_TAG_formal_parameter
     962                      .dwattr $C$DW$87, DW_AT_name("y")
     963                      .dwattr $C$DW$87, DW_AT_type(*$C$DW$T$16)
     964                      .dwattr $C$DW$87, DW_AT_location[DW_OP_regx 0x2f]
TMS320C2000 Assembler PC v22.6.0 Tue Dec 20 15:55:14 2022

Copyright (c) 1996-2018 Texas Instruments Incorporated
obc_7_4kw.asm                                                        PAGE   19

     965              
     966              
     967              ;***************************************************************
     968              ;* FNAME: __relaxed_fmaxf               FR SIZE:   0           *
     969              ;*                                                             *
     970              ;* FUNCTION ENVIRONMENT                                        *
     971              ;*                                                             *
     972              ;* FUNCTION PROPERTIES                                         *
     973              ;*                            0 Parameter,  0 Auto,  0 SOE     *
     974              ;***************************************************************
     975              
     976              ||__relaxed_fmaxf||:
     977              ;* R1    assigned to y
     978              $C$DW$88        .dwtag  DW_TAG_variable
     979                      .dwattr $C$DW$88, DW_AT_name("y")
     980                      .dwattr $C$DW$88, DW_AT_type(*$C$DW$T$75)
     981                      .dwattr $C$DW$88, DW_AT_location[DW_OP_regx 0x2f]
     982              
     983                      .dwcfi  cfa_offset, -2
     984                      .dwcfi  save_reg_to_mem, 26, 0
     985                      .dwpsn  file "C:/ti/ccs1210/ccs/tools/compiler/ti-cgt-c2000_22.6.0.LTS/include/math.h",line 234,colum
     986 00000000 E696          MAXF32    R0H,R1H               ; [CPU_FPU] |234| 
         00000001 0008 
     987              $C$DW$89        .dwtag  DW_TAG_TI_branch
     988                      .dwattr $C$DW$89, DW_AT_low_pc(0x00)
     989                      .dwattr $C$DW$89, DW_AT_TI_return
     990              
     991 00000002 0006          LRETR     ; [CPU_ALU] 
     992                      ; return occurs ; [] 
     993                      .dwattr $C$DW$85, DW_AT_TI_end_file("C:/ti/ccs1210/ccs/tools/compiler/ti-cgt-c2000_22.6.0.LTS/include
     994                      .dwattr $C$DW$85, DW_AT_TI_end_line(0xeb)
     995                      .dwattr $C$DW$85, DW_AT_TI_end_column(0x01)
     996                      .dwendentry
     997                      .dwendtag $C$DW$85
     998              
     999 00000000               .sect   ".text:__relaxed_cosf"
    1000                      .clink
    1001                      .global ||__relaxed_cosf||
    1002              
    1003              $C$DW$90        .dwtag  DW_TAG_subprogram
    1004                      .dwattr $C$DW$90, DW_AT_name("__relaxed_cosf")
    1005                      .dwattr $C$DW$90, DW_AT_low_pc(||__relaxed_cosf||)
    1006                      .dwattr $C$DW$90, DW_AT_high_pc(0x00)
    1007                      .dwattr $C$DW$90, DW_AT_linkage_name("__relaxed_cosf")
    1008                      .dwattr $C$DW$90, DW_AT_external
    1009                      .dwattr $C$DW$90, DW_AT_type(*$C$DW$T$16)
    1010                      .dwattr $C$DW$90, DW_AT_decl_file("C:/ti/ccs1210/ccs/tools/compiler/ti-cgt-c2000_22.6.0.LTS/include/m
    1011                      .dwattr $C$DW$90, DW_AT_decl_line(0x10d)
    1012                      .dwattr $C$DW$90, DW_AT_decl_column(0x10)
    1013                      .dwattr $C$DW$90, DW_AT_TI_max_frame_size(-2)
    1014                      .dwpsn  file "C:/ti/ccs1210/ccs/tools/compiler/ti-cgt-c2000_22.6.0.LTS/include/math.h",line 270,colum
    1015              
    1016                      .dwfde $C$DW$CIE, ||__relaxed_cosf||
    1017              $C$DW$91        .dwtag  DW_TAG_formal_parameter
    1018                      .dwattr $C$DW$91, DW_AT_name("x")
TMS320C2000 Assembler PC v22.6.0 Tue Dec 20 15:55:14 2022

Copyright (c) 1996-2018 Texas Instruments Incorporated
obc_7_4kw.asm                                                        PAGE   20

    1019                      .dwattr $C$DW$91, DW_AT_type(*$C$DW$T$16)
    1020                      .dwattr $C$DW$91, DW_AT_location[DW_OP_regx 0x2b]
    1021              
    1022              
    1023              ;***************************************************************
    1024              ;* FNAME: __relaxed_cosf                FR SIZE:   0           *
    1025              ;*                                                             *
    1026              ;* FUNCTION ENVIRONMENT                                        *
    1027              ;*                                                             *
    1028              ;* FUNCTION PROPERTIES                                         *
    1029              ;*                            0 Parameter,  0 Auto,  0 SOE     *
    1030              ;***************************************************************
    1031              
    1032              ||__relaxed_cosf||:
    1033              ;* R0    assigned to x
    1034              $C$DW$92        .dwtag  DW_TAG_variable
    1035                      .dwattr $C$DW$92, DW_AT_name("x")
    1036                      .dwattr $C$DW$92, DW_AT_type(*$C$DW$T$75)
    1037                      .dwattr $C$DW$92, DW_AT_location[DW_OP_regx 0x2b]
    1038              
    1039                      .dwcfi  cfa_offset, -2
    1040                      .dwcfi  save_reg_to_mem, 26, 0
    1041                      .dwpsn  file "C:/ti/ccs1210/ccs/tools/compiler/ti-cgt-c2000_22.6.0.LTS/include/math.h",line 271,colum
    1042 00000000 E271          DIV2PIF32 R0H,R0H               ; [CPU_FPU] |271| 
         00000001 0000 
    1043 00000002 7700          NOP       ; [CPU_ALU] 
    1044 00000003 E279          COSPUF32  R0H,R0H               ; [CPU_FPU] |271| 
         00000004 0000 
    1045 00000005 7700          NOP       ; [CPU_ALU] 
    1046 00000006 7700          NOP       ; [CPU_ALU] 
    1047              $C$DW$93        .dwtag  DW_TAG_TI_branch
    1048                      .dwattr $C$DW$93, DW_AT_low_pc(0x00)
    1049                      .dwattr $C$DW$93, DW_AT_TI_return
    1050              
    1051 00000007 0006          LRETR     ; [CPU_ALU] 
    1052                      ; return occurs ; [] 
    1053                      .dwattr $C$DW$90, DW_AT_TI_end_file("C:/ti/ccs1210/ccs/tools/compiler/ti-cgt-c2000_22.6.0.LTS/include
    1054                      .dwattr $C$DW$90, DW_AT_TI_end_line(0x110)
    1055                      .dwattr $C$DW$90, DW_AT_TI_end_column(0x01)
    1056                      .dwendentry
    1057                      .dwendtag $C$DW$90
    1058              
    1059 00000000               .sect   ".text:__relaxed_atanf"
    1060                      .clink
    1061                      .global ||__relaxed_atanf||
    1062              
    1063              $C$DW$94        .dwtag  DW_TAG_subprogram
    1064                      .dwattr $C$DW$94, DW_AT_name("__relaxed_atanf")
    1065                      .dwattr $C$DW$94, DW_AT_low_pc(||__relaxed_atanf||)
    1066                      .dwattr $C$DW$94, DW_AT_high_pc(0x00)
    1067                      .dwattr $C$DW$94, DW_AT_linkage_name("__relaxed_atanf")
    1068                      .dwattr $C$DW$94, DW_AT_external
    1069                      .dwattr $C$DW$94, DW_AT_type(*$C$DW$T$16)
    1070                      .dwattr $C$DW$94, DW_AT_decl_file("C:/ti/ccs1210/ccs/tools/compiler/ti-cgt-c2000_22.6.0.LTS/include/m
    1071                      .dwattr $C$DW$94, DW_AT_decl_line(0x112)
TMS320C2000 Assembler PC v22.6.0 Tue Dec 20 15:55:14 2022

Copyright (c) 1996-2018 Texas Instruments Incorporated
obc_7_4kw.asm                                                        PAGE   21

    1072                      .dwattr $C$DW$94, DW_AT_decl_column(0x10)
    1073                      .dwattr $C$DW$94, DW_AT_TI_max_frame_size(-2)
    1074                      .dwpsn  file "C:/ti/ccs1210/ccs/tools/compiler/ti-cgt-c2000_22.6.0.LTS/include/math.h",line 275,colum
    1075              
    1076                      .dwfde $C$DW$CIE, ||__relaxed_atanf||
    1077              $C$DW$95        .dwtag  DW_TAG_formal_parameter
    1078                      .dwattr $C$DW$95, DW_AT_name("x")
    1079                      .dwattr $C$DW$95, DW_AT_type(*$C$DW$T$16)
    1080                      .dwattr $C$DW$95, DW_AT_location[DW_OP_regx 0x2b]
    1081              
    1082              
    1083              ;***************************************************************
    1084              ;* FNAME: __relaxed_atanf               FR SIZE:   0           *
    1085              ;*                                                             *
    1086              ;* FUNCTION ENVIRONMENT                                        *
    1087              ;*                                                             *
    1088              ;* FUNCTION PROPERTIES                                         *
    1089              ;*                            0 Parameter,  0 Auto,  0 SOE     *
    1090              ;***************************************************************
    1091              
    1092              ||__relaxed_atanf||:
    1093              ;* R0    assigned to x
    1094              $C$DW$96        .dwtag  DW_TAG_variable
    1095                      .dwattr $C$DW$96, DW_AT_name("x")
    1096                      .dwattr $C$DW$96, DW_AT_type(*$C$DW$T$75)
    1097                      .dwattr $C$DW$96, DW_AT_location[DW_OP_regx 0x2b]
    1098              
    1099                      .dwcfi  cfa_offset, -2
    1100                      .dwcfi  save_reg_to_mem, 26, 0
    1101                      .dwpsn  file "C:/ti/ccs1210/ccs/tools/compiler/ti-cgt-c2000_22.6.0.LTS/include/math.h",line 276,colum
    1102 00000000 E801          MOVIZ     R1H,#16256            ; [CPU_FPU] |276| 
         00000001 FC01 
    1103 00000002 E27C          QUADF32   R1H,R0H,R0H,R1H       ; [CPU_FPU] |276| 
         00000003 0201 
    1104 00000004 7700          NOP       ; [CPU_ALU] 
    1105 00000005 7700          NOP       ; [CPU_ALU] 
    1106 00000006 7700          NOP       ; [CPU_ALU] 
    1107 00000007 7700          NOP       ; [CPU_ALU] 
    1108 00000008 E27A          ATANPUF32 R0H,R0H               ; [CPU_FPU] |276| 
         00000009 0000 
    1109 0000000a 7700          NOP       ; [CPU_ALU] 
    1110 0000000b 7700          NOP       ; [CPU_ALU] 
    1111 0000000c 7700          NOP       ; [CPU_ALU] 
    1112 0000000d E710          ADDF32    R0H,R0H,R1H           ; [CPU_FPU] |276| 
         0000000e 0040 
    1113 0000000f 7700          NOP       ; [CPU_ALU] 
    1114 00000010 7700          NOP       ; [CPU_ALU] 
    1115 00000011 E270          MPY2PIF32 R0H,R0H               ; [CPU_FPU] |276| 
         00000012 0000 
    1116 00000013 7700          NOP       ; [CPU_ALU] 
    1117              $C$DW$97        .dwtag  DW_TAG_TI_branch
    1118                      .dwattr $C$DW$97, DW_AT_low_pc(0x00)
    1119                      .dwattr $C$DW$97, DW_AT_TI_return
    1120              
    1121 00000014 0006          LRETR     ; [CPU_ALU] 
TMS320C2000 Assembler PC v22.6.0 Tue Dec 20 15:55:14 2022

Copyright (c) 1996-2018 Texas Instruments Incorporated
obc_7_4kw.asm                                                        PAGE   22

    1122                      ; return occurs ; [] 
    1123                      .dwattr $C$DW$94, DW_AT_TI_end_file("C:/ti/ccs1210/ccs/tools/compiler/ti-cgt-c2000_22.6.0.LTS/include
    1124                      .dwattr $C$DW$94, DW_AT_TI_end_line(0x115)
    1125                      .dwattr $C$DW$94, DW_AT_TI_end_column(0x01)
    1126                      .dwendentry
    1127                      .dwendtag $C$DW$94
    1128              
    1129 00000000               .sect   ".text:__relaxed_atan2f"
    1130                      .clink
    1131                      .global ||__relaxed_atan2f||
    1132              
    1133              $C$DW$98        .dwtag  DW_TAG_subprogram
    1134                      .dwattr $C$DW$98, DW_AT_name("__relaxed_atan2f")
    1135                      .dwattr $C$DW$98, DW_AT_low_pc(||__relaxed_atan2f||)
    1136                      .dwattr $C$DW$98, DW_AT_high_pc(0x00)
    1137                      .dwattr $C$DW$98, DW_AT_linkage_name("__relaxed_atan2f")
    1138                      .dwattr $C$DW$98, DW_AT_external
    1139                      .dwattr $C$DW$98, DW_AT_type(*$C$DW$T$16)
    1140                      .dwattr $C$DW$98, DW_AT_decl_file("C:/ti/ccs1210/ccs/tools/compiler/ti-cgt-c2000_22.6.0.LTS/include/m
    1141                      .dwattr $C$DW$98, DW_AT_decl_line(0x117)
    1142                      .dwattr $C$DW$98, DW_AT_decl_column(0x10)
    1143                      .dwattr $C$DW$98, DW_AT_TI_max_frame_size(-2)
    1144                      .dwpsn  file "C:/ti/ccs1210/ccs/tools/compiler/ti-cgt-c2000_22.6.0.LTS/include/math.h",line 280,colum
    1145              
    1146                      .dwfde $C$DW$CIE, ||__relaxed_atan2f||
    1147              $C$DW$99        .dwtag  DW_TAG_formal_parameter
    1148                      .dwattr $C$DW$99, DW_AT_name("y")
    1149                      .dwattr $C$DW$99, DW_AT_type(*$C$DW$T$16)
    1150                      .dwattr $C$DW$99, DW_AT_location[DW_OP_regx 0x2b]
    1151              
    1152              $C$DW$100       .dwtag  DW_TAG_formal_parameter
    1153                      .dwattr $C$DW$100, DW_AT_name("x")
    1154                      .dwattr $C$DW$100, DW_AT_type(*$C$DW$T$16)
    1155                      .dwattr $C$DW$100, DW_AT_location[DW_OP_regx 0x2f]
    1156              
    1157              
    1158              ;***************************************************************
    1159              ;* FNAME: __relaxed_atan2f              FR SIZE:   0           *
    1160              ;*                                                             *
    1161              ;* FUNCTION ENVIRONMENT                                        *
    1162              ;*                                                             *
    1163              ;* FUNCTION PROPERTIES                                         *
    1164              ;*                            0 Parameter,  0 Auto,  0 SOE     *
    1165              ;***************************************************************
    1166              
    1167              ||__relaxed_atan2f||:
    1168              ;* R0    assigned to y
    1169              $C$DW$101       .dwtag  DW_TAG_variable
    1170                      .dwattr $C$DW$101, DW_AT_name("y")
    1171                      .dwattr $C$DW$101, DW_AT_type(*$C$DW$T$75)
    1172                      .dwattr $C$DW$101, DW_AT_location[DW_OP_regx 0x2b]
    1173              
    1174              ;* R1    assigned to x
    1175              $C$DW$102       .dwtag  DW_TAG_variable
    1176                      .dwattr $C$DW$102, DW_AT_name("x")
TMS320C2000 Assembler PC v22.6.0 Tue Dec 20 15:55:14 2022

Copyright (c) 1996-2018 Texas Instruments Incorporated
obc_7_4kw.asm                                                        PAGE   23

    1177                      .dwattr $C$DW$102, DW_AT_type(*$C$DW$T$75)
    1178                      .dwattr $C$DW$102, DW_AT_location[DW_OP_regx 0x2f]
    1179              
    1180                      .dwcfi  cfa_offset, -2
    1181                      .dwcfi  save_reg_to_mem, 26, 0
    1182                      .dwpsn  file "C:/ti/ccs1210/ccs/tools/compiler/ti-cgt-c2000_22.6.0.LTS/include/math.h",line 281,colum
    1183 00000000 E27C          QUADF32   R1H,R0H,R0H,R1H       ; [CPU_FPU] |281| 
         00000001 0201 
    1184 00000002 7700          NOP       ; [CPU_ALU] 
    1185 00000003 7700          NOP       ; [CPU_ALU] 
    1186 00000004 7700          NOP       ; [CPU_ALU] 
    1187 00000005 7700          NOP       ; [CPU_ALU] 
    1188 00000006 E27A          ATANPUF32 R0H,R0H               ; [CPU_FPU] |281| 
         00000007 0000 
    1189 00000008 7700          NOP       ; [CPU_ALU] 
    1190 00000009 7700          NOP       ; [CPU_ALU] 
    1191 0000000a 7700          NOP       ; [CPU_ALU] 
    1192 0000000b E710          ADDF32    R0H,R0H,R1H           ; [CPU_FPU] |281| 
         0000000c 0040 
    1193 0000000d 7700          NOP       ; [CPU_ALU] 
    1194 0000000e 7700          NOP       ; [CPU_ALU] 
    1195 0000000f E270          MPY2PIF32 R0H,R0H               ; [CPU_FPU] |281| 
         00000010 0000 
    1196 00000011 7700          NOP       ; [CPU_ALU] 
    1197              $C$DW$103       .dwtag  DW_TAG_TI_branch
    1198                      .dwattr $C$DW$103, DW_AT_low_pc(0x00)
    1199                      .dwattr $C$DW$103, DW_AT_TI_return
    1200              
    1201 00000012 0006          LRETR     ; [CPU_ALU] 
    1202                      ; return occurs ; [] 
    1203                      .dwattr $C$DW$98, DW_AT_TI_end_file("C:/ti/ccs1210/ccs/tools/compiler/ti-cgt-c2000_22.6.0.LTS/include
    1204                      .dwattr $C$DW$98, DW_AT_TI_end_line(0x11a)
    1205                      .dwattr $C$DW$98, DW_AT_TI_end_column(0x01)
    1206                      .dwendentry
    1207                      .dwendtag $C$DW$98
    1208              
    1209 00000000               .sect   ".text:__isnormall"
    1210                      .clink
    1211                      .global ||__isnormall||
    1212              
    1213              $C$DW$104       .dwtag  DW_TAG_subprogram
    1214                      .dwattr $C$DW$104, DW_AT_name("__isnormall")
    1215                      .dwattr $C$DW$104, DW_AT_low_pc(||__isnormall||)
    1216                      .dwattr $C$DW$104, DW_AT_high_pc(0x00)
    1217                      .dwattr $C$DW$104, DW_AT_linkage_name("__isnormall")
    1218                      .dwattr $C$DW$104, DW_AT_external
    1219                      .dwattr $C$DW$104, DW_AT_type(*$C$DW$T$10)
    1220                      .dwattr $C$DW$104, DW_AT_decl_file("C:/ti/ccs1210/ccs/tools/compiler/ti-cgt-c2000_22.6.0.LTS/include/
    1221                      .dwattr $C$DW$104, DW_AT_decl_line(0x167)
    1222                      .dwattr $C$DW$104, DW_AT_decl_column(0x18)
    1223                      .dwattr $C$DW$104, DW_AT_TI_max_frame_size(-6)
    1224                      .dwpsn  file "C:/ti/ccs1210/ccs/tools/compiler/ti-cgt-c2000_22.6.0.LTS/include/_defs.h",line 360,colu
    1225              
    1226                      .dwfde $C$DW$CIE, ||__isnormall||
    1227              $C$DW$105       .dwtag  DW_TAG_formal_parameter
TMS320C2000 Assembler PC v22.6.0 Tue Dec 20 15:55:14 2022

Copyright (c) 1996-2018 Texas Instruments Incorporated
obc_7_4kw.asm                                                        PAGE   24

    1228                      .dwattr $C$DW$105, DW_AT_name("e")
    1229                      .dwattr $C$DW$105, DW_AT_type(*$C$DW$T$18)
    1230                      .dwattr $C$DW$105, DW_AT_location[DW_OP_regx 0x29]
    1231              
    1232              
    1233              ;***************************************************************
    1234              ;* FNAME: __isnormall                   FR SIZE:   4           *
    1235              ;*                                                             *
    1236              ;* FUNCTION ENVIRONMENT                                        *
    1237              ;*                                                             *
    1238              ;* FUNCTION PROPERTIES                                         *
    1239              ;*                            4 Parameter,  0 Auto,  0 SOE     *
    1240              ;***************************************************************
    1241              
    1242 00000000       ||__isnormall||:
    1243              ;* AR5   assigned to $O$K3
    1244              ;* AR6   assigned to $O$S1
    1245                      .dwcfi  cfa_offset, -2
    1246                      .dwcfi  save_reg_to_mem, 26, 0
    1247 00000000 FE04          ADDB      SP,#4                 ; [CPU_ARAU] 
    1248                      .dwcfi  cfa_offset, -6
    1249                      .dwpsn  file "C:/ti/ccs1210/ccs/tools/compiler/ti-cgt-c2000_22.6.0.LTS/include/_defs.h",line 360,colu
    1250 00000001 BFA6          MOV32     XAR6,R0L              ; [CPU_FPU] |360| 
         00000002 0F10 
    1251 00000003 BFA7          MOV32     XAR7,R0H              ; [CPU_FPU] |360| 
         00000004 0F12 
    1252 00000005 83A6          MOVL      XAR5,XAR6             ; [CPU_ALU] |360| 
    1253 00000006 A3A6          MOVL      P,XAR6                ; [CPU_ALU] |360| 
    1254 00000007 BE00          MOVB      XAR6,#0               ; [CPU_ALU] |360| 
    1255 00000008 28AC          MOV       T,#52                 ; [CPU_ALU] |360| 
         00000009 0034 
    1256 0000000a 06A7          MOVL      ACC,XAR7              ; [CPU_ALU] |360| 
    1257 0000000b 565B          LSR64     ACC:P,T               ; [CPU_ALU] |360| 
    1258 0000000c C244          MOVL      *-SP[4],XAR6          ; [CPU_FPU] |360| 
    1259 0000000d 2B42          MOV       *-SP[2],#0            ; [CPU_FPU] |360| 
    1260 0000000e 9000          ANDB      AL,#0                 ; [CPU_ALU] |360| 
    1261 0000000f 9100          ANDB      AH,#0                 ; [CPU_ALU] |360| 
    1262 00000010 18AB          AND       PL,#2047              ; [CPU_ALU] |360| 
         00000011 07FF 
    1263 00000012 18AA          AND       PH,#0                 ; [CPU_ALU] |360| 
         00000013 0000 
    1264 00000014 2B41          MOV       *-SP[1],#0            ; [CPU_FPU] |360| 
    1265              $C$DW$106       .dwtag  DW_TAG_TI_branch
    1266                      .dwattr $C$DW$106, DW_AT_low_pc(0x00)
    1267                      .dwattr $C$DW$106, DW_AT_name("__c28xabi_cmpull")
    1268                      .dwattr $C$DW$106, DW_AT_TI_call
    1269              
    1270 00000015 7640!         LCR       #||__c28xabi_cmpull|| ; [CPU_ALU] |360| 
         00000016 0000 
    1271                      ; call occurs [#||__c28xabi_cmpull||] ; [] |360| 
    1272 00000017 8AA7          MOVL      XAR4,XAR7             ; [CPU_ALU] |360| 
    1273 00000018 BE00          MOVB      XAR6,#0               ; [CPU_ALU] |360| 
    1274 00000019 5200          CMPB      AL,#0                 ; [CPU_ALU] |360| 
    1275 0000001a 610E          B         ||$C$L1||,EQ          ; [CPU_ALU] |360| 
    1276                      ; branchcc occurs ; [] |360| 
TMS320C2000 Assembler PC v22.6.0 Tue Dec 20 15:55:14 2022

Copyright (c) 1996-2018 Texas Instruments Incorporated
obc_7_4kw.asm                                                        PAGE   25

    1277 0000001b A0AB          MOVL      P,XAR5                ; [CPU_ALU] |360| 
    1278 0000001c A8A9          MOVL      ACC,XAR4              ; [CPU_ALU] |360| 
    1279 0000001d 28AC          MOV       T,#48                 ; [CPU_ALU] |360| 
         0000001e 0030 
    1280 0000001f 565B          LSR64     ACC:P,T               ; [CPU_ALU] |360| 
    1281 00000020 18AB          AND       PL,#0x7ff0            ; [CPU_ALU] |360| 
         00000021 7FF0 
    1282 00000022 80AB          MOVZ      AR7,PL                ; [CPU_ALU] |360| 
    1283 00000023 FF20          MOV       ACC,#32752            ; [CPU_ALU] |360| 
         00000024 7FF0 
    1284 00000025 0FA7          CMPL      ACC,XAR7              ; [CPU_ALU] |360| 
    1285 00000026 56B0          MOVB      XAR6,#1,NEQ           ; [CPU_ALU] |360| 
         00000027 01A6 
    1286 00000028       ||$C$L1||:    
    1287 00000028 FE84          SUBB      SP,#4                 ; [CPU_ARAU] 
    1288                      .dwcfi  cfa_offset, -2
    1289 00000029 92A6          MOV       AL,AR6                ; [CPU_ALU] |360| 
    1290              $C$DW$107       .dwtag  DW_TAG_TI_branch
    1291                      .dwattr $C$DW$107, DW_AT_low_pc(0x00)
    1292                      .dwattr $C$DW$107, DW_AT_TI_return
    1293              
    1294 0000002a 0006          LRETR     ; [CPU_ALU] 
    1295                      ; return occurs ; [] 
    1296                      .dwattr $C$DW$104, DW_AT_TI_end_file("C:/ti/ccs1210/ccs/tools/compiler/ti-cgt-c2000_22.6.0.LTS/includ
    1297                      .dwattr $C$DW$104, DW_AT_TI_end_line(0x169)
    1298                      .dwattr $C$DW$104, DW_AT_TI_end_column(0x31)
    1299                      .dwendentry
    1300                      .dwendtag $C$DW$104
    1301              
    1302 00000000               .sect   ".text:__isnormalf"
    1303                      .clink
    1304                      .global ||__isnormalf||
    1305              
    1306              $C$DW$108       .dwtag  DW_TAG_subprogram
    1307                      .dwattr $C$DW$108, DW_AT_name("__isnormalf")
    1308                      .dwattr $C$DW$108, DW_AT_low_pc(||__isnormalf||)
    1309                      .dwattr $C$DW$108, DW_AT_high_pc(0x00)
    1310                      .dwattr $C$DW$108, DW_AT_linkage_name("__isnormalf")
    1311                      .dwattr $C$DW$108, DW_AT_external
    1312                      .dwattr $C$DW$108, DW_AT_type(*$C$DW$T$10)
    1313                      .dwattr $C$DW$108, DW_AT_decl_file("C:/ti/ccs1210/ccs/tools/compiler/ti-cgt-c2000_22.6.0.LTS/include/
    1314                      .dwattr $C$DW$108, DW_AT_decl_line(0x163)
    1315                      .dwattr $C$DW$108, DW_AT_decl_column(0x18)
    1316                      .dwattr $C$DW$108, DW_AT_TI_max_frame_size(-2)
    1317                      .dwpsn  file "C:/ti/ccs1210/ccs/tools/compiler/ti-cgt-c2000_22.6.0.LTS/include/_defs.h",line 356,colu
    1318              
    1319                      .dwfde $C$DW$CIE, ||__isnormalf||
    1320              $C$DW$109       .dwtag  DW_TAG_formal_parameter
    1321                      .dwattr $C$DW$109, DW_AT_name("f")
    1322                      .dwattr $C$DW$109, DW_AT_type(*$C$DW$T$16)
    1323                      .dwattr $C$DW$109, DW_AT_location[DW_OP_regx 0x2b]
    1324              
    1325              
    1326              ;***************************************************************
    1327              ;* FNAME: __isnormalf                   FR SIZE:   0           *
TMS320C2000 Assembler PC v22.6.0 Tue Dec 20 15:55:14 2022

Copyright (c) 1996-2018 Texas Instruments Incorporated
obc_7_4kw.asm                                                        PAGE   26

    1328              ;*                                                             *
    1329              ;* FUNCTION ENVIRONMENT                                        *
    1330              ;*                                                             *
    1331              ;* FUNCTION PROPERTIES                                         *
    1332              ;*                            0 Parameter,  0 Auto,  0 SOE     *
    1333              ;***************************************************************
    1334              
    1335              ||__isnormalf||:
    1336              ;* PL    assigned to $O$K3
    1337              ;* AR6   assigned to $O$S1
    1338              ;* R0    assigned to f
    1339              $C$DW$110       .dwtag  DW_TAG_variable
    1340                      .dwattr $C$DW$110, DW_AT_name("f")
    1341                      .dwattr $C$DW$110, DW_AT_type(*$C$DW$T$75)
    1342                      .dwattr $C$DW$110, DW_AT_location[DW_OP_regx 0x2b]
    1343              
    1344                      .dwcfi  cfa_offset, -2
    1345                      .dwcfi  save_reg_to_mem, 26, 0
    1346                      .dwpsn  file "C:/ti/ccs1210/ccs/tools/compiler/ti-cgt-c2000_22.6.0.LTS/include/_defs.h",line 356,colu
    1347 00000000 BFAB          MOV32     P,R0H                 ; [CPU_FPU] |356| 
         00000001 0F12 
    1348 00000002 28AC          MOV       T,#23                 ; [CPU_ALU] |356| 
         00000003 0017 
    1349 00000004 A9A9          MOVL      ACC,P                 ; [CPU_ALU] |356| 
    1350 00000005 BE00          MOVB      XAR6,#0               ; [CPU_ALU] |356| 
    1351 00000006 5622          LSRL      ACC,T                 ; [CPU_ALU] |356| 
    1352 00000007 90FF          ANDB      AL,#0xff              ; [CPU_ALU] |356| 
    1353 00000008 6109          B         ||$C$L2||,EQ          ; [CPU_ALU] |356| 
    1354                      ; branchcc occurs ; [] |356| 
    1355 00000009 CCAA          AND       AL,PH,#0x7f80         ; [CPU_ALU] |356| 
         0000000a 7F80 
    1356 0000000b 80A9          MOVZ      AR7,AL                ; [CPU_ALU] |356| 
    1357 0000000c FF20          MOV       ACC,#32640            ; [CPU_ALU] |356| 
         0000000d 7F80 
    1358 0000000e 0FA7          CMPL      ACC,XAR7              ; [CPU_ALU] |356| 
    1359 0000000f 56B0          MOVB      XAR6,#1,NEQ           ; [CPU_ALU] |356| 
         00000010 01A6 
    1360 00000011       ||$C$L2||:    
    1361 00000011 92A6          MOV       AL,AR6                ; [CPU_ALU] |356| 
    1362              $C$DW$111       .dwtag  DW_TAG_TI_branch
    1363                      .dwattr $C$DW$111, DW_AT_low_pc(0x00)
    1364                      .dwattr $C$DW$111, DW_AT_TI_return
    1365              
    1366 00000012 0006          LRETR     ; [CPU_ALU] 
    1367                      ; return occurs ; [] 
    1368                      .dwattr $C$DW$108, DW_AT_TI_end_file("C:/ti/ccs1210/ccs/tools/compiler/ti-cgt-c2000_22.6.0.LTS/includ
    1369                      .dwattr $C$DW$108, DW_AT_TI_end_line(0x165)
    1370                      .dwattr $C$DW$108, DW_AT_TI_end_column(0x2f)
    1371                      .dwendentry
    1372                      .dwendtag $C$DW$108
    1373              
    1374 00000000               .sect   ".text:__isnormal"
    1375                      .clink
    1376                      .global ||__isnormal||
    1377              
TMS320C2000 Assembler PC v22.6.0 Tue Dec 20 15:55:14 2022

Copyright (c) 1996-2018 Texas Instruments Incorporated
obc_7_4kw.asm                                                        PAGE   27

    1378              $C$DW$112       .dwtag  DW_TAG_subprogram
    1379                      .dwattr $C$DW$112, DW_AT_name("__isnormal")
    1380                      .dwattr $C$DW$112, DW_AT_low_pc(||__isnormal||)
    1381                      .dwattr $C$DW$112, DW_AT_high_pc(0x00)
    1382                      .dwattr $C$DW$112, DW_AT_linkage_name("__isnormal")
    1383                      .dwattr $C$DW$112, DW_AT_external
    1384                      .dwattr $C$DW$112, DW_AT_type(*$C$DW$T$10)
    1385                      .dwattr $C$DW$112, DW_AT_decl_file("C:/ti/ccs1210/ccs/tools/compiler/ti-cgt-c2000_22.6.0.LTS/include/
    1386                      .dwattr $C$DW$112, DW_AT_decl_line(0x15f)
    1387                      .dwattr $C$DW$112, DW_AT_decl_column(0x18)
    1388                      .dwattr $C$DW$112, DW_AT_TI_max_frame_size(-6)
    1389                      .dwpsn  file "C:/ti/ccs1210/ccs/tools/compiler/ti-cgt-c2000_22.6.0.LTS/include/_defs.h",line 352,colu
    1390              
    1391                      .dwfde $C$DW$CIE, ||__isnormal||
    1392              $C$DW$113       .dwtag  DW_TAG_formal_parameter
    1393                      .dwattr $C$DW$113, DW_AT_name("d")
    1394                      .dwattr $C$DW$113, DW_AT_type(*$C$DW$T$17)
    1395                      .dwattr $C$DW$113, DW_AT_location[DW_OP_regx 0x29]
    1396              
    1397              
    1398              ;***************************************************************
    1399              ;* FNAME: __isnormal                    FR SIZE:   4           *
    1400              ;*                                                             *
    1401              ;* FUNCTION ENVIRONMENT                                        *
    1402              ;*                                                             *
    1403              ;* FUNCTION PROPERTIES                                         *
    1404              ;*                            4 Parameter,  0 Auto,  0 SOE     *
    1405              ;***************************************************************
    1406              
    1407 00000000       ||__isnormal||:
    1408              ;* AR5   assigned to $O$K3
    1409              ;* AR6   assigned to $O$S1
    1410                      .dwcfi  cfa_offset, -2
    1411                      .dwcfi  save_reg_to_mem, 26, 0
    1412 00000000 FE04          ADDB      SP,#4                 ; [CPU_ARAU] 
    1413                      .dwcfi  cfa_offset, -6
    1414                      .dwpsn  file "C:/ti/ccs1210/ccs/tools/compiler/ti-cgt-c2000_22.6.0.LTS/include/_defs.h",line 352,colu
    1415 00000001 BFA6          MOV32     XAR6,R0L              ; [CPU_FPU] |352| 
         00000002 0F10 
    1416 00000003 BFA7          MOV32     XAR7,R0H              ; [CPU_FPU] |352| 
         00000004 0F12 
    1417 00000005 83A6          MOVL      XAR5,XAR6             ; [CPU_ALU] |352| 
    1418 00000006 A3A6          MOVL      P,XAR6                ; [CPU_ALU] |352| 
    1419 00000007 BE00          MOVB      XAR6,#0               ; [CPU_ALU] |352| 
    1420 00000008 28AC          MOV       T,#52                 ; [CPU_ALU] |352| 
         00000009 0034 
    1421 0000000a 06A7          MOVL      ACC,XAR7              ; [CPU_ALU] |352| 
    1422 0000000b 565B          LSR64     ACC:P,T               ; [CPU_ALU] |352| 
    1423 0000000c C244          MOVL      *-SP[4],XAR6          ; [CPU_FPU] |352| 
    1424 0000000d 2B42          MOV       *-SP[2],#0            ; [CPU_FPU] |352| 
    1425 0000000e 9000          ANDB      AL,#0                 ; [CPU_ALU] |352| 
    1426 0000000f 9100          ANDB      AH,#0                 ; [CPU_ALU] |352| 
    1427 00000010 18AB          AND       PL,#2047              ; [CPU_ALU] |352| 
         00000011 07FF 
    1428 00000012 18AA          AND       PH,#0                 ; [CPU_ALU] |352| 
TMS320C2000 Assembler PC v22.6.0 Tue Dec 20 15:55:14 2022

Copyright (c) 1996-2018 Texas Instruments Incorporated
obc_7_4kw.asm                                                        PAGE   28

         00000013 0000 
    1429 00000014 2B41          MOV       *-SP[1],#0            ; [CPU_FPU] |352| 
    1430              $C$DW$114       .dwtag  DW_TAG_TI_branch
    1431                      .dwattr $C$DW$114, DW_AT_low_pc(0x00)
    1432                      .dwattr $C$DW$114, DW_AT_name("__c28xabi_cmpull")
    1433                      .dwattr $C$DW$114, DW_AT_TI_call
    1434              
    1435 00000015 7640!         LCR       #||__c28xabi_cmpull|| ; [CPU_ALU] |352| 
         00000016 0000 
    1436                      ; call occurs [#||__c28xabi_cmpull||] ; [] |352| 
    1437 00000017 8AA7          MOVL      XAR4,XAR7             ; [CPU_ALU] |352| 
    1438 00000018 BE00          MOVB      XAR6,#0               ; [CPU_ALU] |352| 
    1439 00000019 5200          CMPB      AL,#0                 ; [CPU_ALU] |352| 
    1440 0000001a 610E          B         ||$C$L3||,EQ          ; [CPU_ALU] |352| 
    1441                      ; branchcc occurs ; [] |352| 
    1442 0000001b A0AB          MOVL      P,XAR5                ; [CPU_ALU] |352| 
    1443 0000001c A8A9          MOVL      ACC,XAR4              ; [CPU_ALU] |352| 
    1444 0000001d 28AC          MOV       T,#48                 ; [CPU_ALU] |352| 
         0000001e 0030 
    1445 0000001f 565B          LSR64     ACC:P,T               ; [CPU_ALU] |352| 
    1446 00000020 18AB          AND       PL,#0x7ff0            ; [CPU_ALU] |352| 
         00000021 7FF0 
    1447 00000022 80AB          MOVZ      AR7,PL                ; [CPU_ALU] |352| 
    1448 00000023 FF20          MOV       ACC,#32752            ; [CPU_ALU] |352| 
         00000024 7FF0 
    1449 00000025 0FA7          CMPL      ACC,XAR7              ; [CPU_ALU] |352| 
    1450 00000026 56B0          MOVB      XAR6,#1,NEQ           ; [CPU_ALU] |352| 
         00000027 01A6 
    1451 00000028       ||$C$L3||:    
    1452 00000028 FE84          SUBB      SP,#4                 ; [CPU_ARAU] 
    1453                      .dwcfi  cfa_offset, -2
    1454 00000029 92A6          MOV       AL,AR6                ; [CPU_ALU] |352| 
    1455              $C$DW$115       .dwtag  DW_TAG_TI_branch
    1456                      .dwattr $C$DW$115, DW_AT_low_pc(0x00)
    1457                      .dwattr $C$DW$115, DW_AT_TI_return
    1458              
    1459 0000002a 0006          LRETR     ; [CPU_ALU] 
    1460                      ; return occurs ; [] 
    1461                      .dwattr $C$DW$112, DW_AT_TI_end_file("C:/ti/ccs1210/ccs/tools/compiler/ti-cgt-c2000_22.6.0.LTS/includ
    1462                      .dwattr $C$DW$112, DW_AT_TI_end_line(0x161)
    1463                      .dwattr $C$DW$112, DW_AT_TI_end_column(0x30)
    1464                      .dwendentry
    1465                      .dwendtag $C$DW$112
    1466              
    1467 00000000               .sect   ".text:__isnanl"
    1468                      .clink
    1469                      .global ||__isnanl||
    1470              
    1471              $C$DW$116       .dwtag  DW_TAG_subprogram
    1472                      .dwattr $C$DW$116, DW_AT_name("__isnanl")
    1473                      .dwattr $C$DW$116, DW_AT_low_pc(||__isnanl||)
    1474                      .dwattr $C$DW$116, DW_AT_high_pc(0x00)
    1475                      .dwattr $C$DW$116, DW_AT_linkage_name("__isnanl")
    1476                      .dwattr $C$DW$116, DW_AT_external
    1477                      .dwattr $C$DW$116, DW_AT_type(*$C$DW$T$10)
TMS320C2000 Assembler PC v22.6.0 Tue Dec 20 15:55:14 2022

Copyright (c) 1996-2018 Texas Instruments Incorporated
obc_7_4kw.asm                                                        PAGE   29

    1478                      .dwattr $C$DW$116, DW_AT_decl_file("C:/ti/ccs1210/ccs/tools/compiler/ti-cgt-c2000_22.6.0.LTS/include/
    1479                      .dwattr $C$DW$116, DW_AT_decl_line(0x15b)
    1480                      .dwattr $C$DW$116, DW_AT_decl_column(0x18)
    1481                      .dwattr $C$DW$116, DW_AT_TI_max_frame_size(-6)
    1482                      .dwpsn  file "C:/ti/ccs1210/ccs/tools/compiler/ti-cgt-c2000_22.6.0.LTS/include/_defs.h",line 348,colu
    1483              
    1484                      .dwfde $C$DW$CIE, ||__isnanl||
    1485              $C$DW$117       .dwtag  DW_TAG_formal_parameter
    1486                      .dwattr $C$DW$117, DW_AT_name("e")
    1487                      .dwattr $C$DW$117, DW_AT_type(*$C$DW$T$18)
    1488                      .dwattr $C$DW$117, DW_AT_location[DW_OP_regx 0x29]
    1489              
    1490              
    1491              ;***************************************************************
    1492              ;* FNAME: __isnanl                      FR SIZE:   4           *
    1493              ;*                                                             *
    1494              ;* FUNCTION ENVIRONMENT                                        *
    1495              ;*                                                             *
    1496              ;* FUNCTION PROPERTIES                                         *
    1497              ;*                            4 Parameter,  0 Auto,  0 SOE     *
    1498              ;***************************************************************
    1499              
    1500 00000000       ||__isnanl||:
    1501              ;* AR7   assigned to $O$K3
    1502              ;* AR4   assigned to $O$S1
    1503                      .dwcfi  cfa_offset, -2
    1504                      .dwcfi  save_reg_to_mem, 26, 0
    1505 00000000 FE04          ADDB      SP,#4                 ; [CPU_ARAU] 
    1506                      .dwcfi  cfa_offset, -6
    1507                      .dwpsn  file "C:/ti/ccs1210/ccs/tools/compiler/ti-cgt-c2000_22.6.0.LTS/include/_defs.h",line 348,colu
    1508 00000001 BFAB          MOV32     P,R0L                 ; [CPU_FPU] |348| 
         00000002 0F10 
    1509 00000003 28AC          MOV       T,#48                 ; [CPU_ALU] |348| 
         00000004 0030 
    1510 00000005 BFA9          MOV32     ACC,R0H               ; [CPU_FPU] |348| 
         00000006 0F12 
    1511 00000007 A9A7          MOVL      XAR7,P                ; [CPU_ALU] |348| 
    1512 00000008 1EA6          MOVL      XAR6,ACC              ; [CPU_ALU] |348| 
    1513 00000009 D400          MOVB      XAR4,#0               ; [CPU_ALU] |348| 
    1514 0000000a 565B          LSR64     ACC:P,T               ; [CPU_ALU] |348| 
    1515 0000000b 2BAA          MOV       PH,#0                 ; [CPU_ALU] |348| 
    1516 0000000c 18AB          AND       PL,#0x7ff0            ; [CPU_ALU] |348| 
         0000000d 7FF0 
    1517 0000000e FF20          MOV       ACC,#32752            ; [CPU_ALU] |348| 
         0000000f 7FF0 
    1518 00000010 0FAB          CMPL      ACC,P                 ; [CPU_ALU] |348| 
    1519 00000011 6013          B         ||$C$L4||,NEQ         ; [CPU_ALU] |348| 
    1520                      ; branchcc occurs ; [] |348| 
    1521 00000012 06A6          MOVL      ACC,XAR6              ; [CPU_ALU] |348| 
    1522 00000013 A3A7          MOVL      P,XAR7                ; [CPU_ALU] |348| 
    1523 00000014 BE00          MOVB      XAR6,#0               ; [CPU_ALU] |348| 
    1524 00000015 18A9          AND       AL,#65535             ; [CPU_ALU] |348| 
         00000016 FFFF 
    1525 00000017 910F          ANDB      AH,#15                ; [CPU_ALU] |348| 
    1526 00000018 18AB          AND       PL,#65535             ; [CPU_ALU] |348| 
TMS320C2000 Assembler PC v22.6.0 Tue Dec 20 15:55:14 2022

Copyright (c) 1996-2018 Texas Instruments Incorporated
obc_7_4kw.asm                                                        PAGE   30

         00000019 FFFF 
    1527 0000001a 18AA          AND       PH,#65535             ; [CPU_ALU] |348| 
         0000001b FFFF 
    1528 0000001c C244          MOVL      *-SP[4],XAR6          ; [CPU_FPU] |348| 
    1529 0000001d 2B42          MOV       *-SP[2],#0            ; [CPU_FPU] |348| 
    1530 0000001e 2B41          MOV       *-SP[1],#0            ; [CPU_FPU] |348| 
    1531              $C$DW$118       .dwtag  DW_TAG_TI_branch
    1532                      .dwattr $C$DW$118, DW_AT_low_pc(0x00)
    1533                      .dwattr $C$DW$118, DW_AT_name("__c28xabi_cmpull")
    1534                      .dwattr $C$DW$118, DW_AT_TI_call
    1535              
    1536 0000001f 7640!         LCR       #||__c28xabi_cmpull|| ; [CPU_ALU] |348| 
         00000020 0000 
    1537                      ; call occurs [#||__c28xabi_cmpull||] ; [] |348| 
    1538 00000021 5200          CMPB      AL,#0                 ; [CPU_ALU] |348| 
    1539 00000022 56B0          MOVB      XAR4,#1,NEQ           ; [CPU_ALU] |348| 
         00000023 01A4 
    1540 00000024       ||$C$L4||:    
    1541 00000024 FE84          SUBB      SP,#4                 ; [CPU_ARAU] 
    1542                      .dwcfi  cfa_offset, -2
    1543 00000025 92A4          MOV       AL,AR4                ; [CPU_ALU] |348| 
    1544              $C$DW$119       .dwtag  DW_TAG_TI_branch
    1545                      .dwattr $C$DW$119, DW_AT_low_pc(0x00)
    1546                      .dwattr $C$DW$119, DW_AT_TI_return
    1547              
    1548 00000026 0006          LRETR     ; [CPU_ALU] 
    1549                      ; return occurs ; [] 
    1550                      .dwattr $C$DW$116, DW_AT_TI_end_file("C:/ti/ccs1210/ccs/tools/compiler/ti-cgt-c2000_22.6.0.LTS/includ
    1551                      .dwattr $C$DW$116, DW_AT_TI_end_line(0x15d)
    1552                      .dwattr $C$DW$116, DW_AT_TI_end_column(0x30)
    1553                      .dwendentry
    1554                      .dwendtag $C$DW$116
    1555              
    1556 00000000               .sect   ".text:__isnanf"
    1557                      .clink
    1558                      .global ||__isnanf||
    1559              
    1560              $C$DW$120       .dwtag  DW_TAG_subprogram
    1561                      .dwattr $C$DW$120, DW_AT_name("__isnanf")
    1562                      .dwattr $C$DW$120, DW_AT_low_pc(||__isnanf||)
    1563                      .dwattr $C$DW$120, DW_AT_high_pc(0x00)
    1564                      .dwattr $C$DW$120, DW_AT_linkage_name("__isnanf")
    1565                      .dwattr $C$DW$120, DW_AT_external
    1566                      .dwattr $C$DW$120, DW_AT_type(*$C$DW$T$10)
    1567                      .dwattr $C$DW$120, DW_AT_decl_file("C:/ti/ccs1210/ccs/tools/compiler/ti-cgt-c2000_22.6.0.LTS/include/
    1568                      .dwattr $C$DW$120, DW_AT_decl_line(0x158)
    1569                      .dwattr $C$DW$120, DW_AT_decl_column(0x18)
    1570                      .dwattr $C$DW$120, DW_AT_TI_max_frame_size(-2)
    1571                      .dwpsn  file "C:/ti/ccs1210/ccs/tools/compiler/ti-cgt-c2000_22.6.0.LTS/include/_defs.h",line 345,colu
    1572              
    1573                      .dwfde $C$DW$CIE, ||__isnanf||
    1574              $C$DW$121       .dwtag  DW_TAG_formal_parameter
    1575                      .dwattr $C$DW$121, DW_AT_name("f")
    1576                      .dwattr $C$DW$121, DW_AT_type(*$C$DW$T$16)
    1577                      .dwattr $C$DW$121, DW_AT_location[DW_OP_regx 0x2b]
TMS320C2000 Assembler PC v22.6.0 Tue Dec 20 15:55:14 2022

Copyright (c) 1996-2018 Texas Instruments Incorporated
obc_7_4kw.asm                                                        PAGE   31

    1578              
    1579              
    1580              ;***************************************************************
    1581              ;* FNAME: __isnanf                      FR SIZE:   0           *
    1582              ;*                                                             *
    1583              ;* FUNCTION ENVIRONMENT                                        *
    1584              ;*                                                             *
    1585              ;* FUNCTION PROPERTIES                                         *
    1586              ;*                            0 Parameter,  0 Auto,  0 SOE     *
    1587              ;***************************************************************
    1588              
    1589              ||__isnanf||:
    1590              ;* PL    assigned to $O$K3
    1591              ;* AR6   assigned to $O$S1
    1592              ;* R0    assigned to f
    1593              $C$DW$122       .dwtag  DW_TAG_variable
    1594                      .dwattr $C$DW$122, DW_AT_name("f")
    1595                      .dwattr $C$DW$122, DW_AT_type(*$C$DW$T$75)
    1596                      .dwattr $C$DW$122, DW_AT_location[DW_OP_regx 0x2b]
    1597              
    1598                      .dwcfi  cfa_offset, -2
    1599                      .dwcfi  save_reg_to_mem, 26, 0
    1600                      .dwpsn  file "C:/ti/ccs1210/ccs/tools/compiler/ti-cgt-c2000_22.6.0.LTS/include/_defs.h",line 345,colu
    1601 00000000 BFAB          MOV32     P,R0H                 ; [CPU_FPU] |345| 
         00000001 0F12 
    1602 00000002 CCAA          AND       AL,PH,#0x7f80         ; [CPU_ALU] |345| 
         00000003 7F80 
    1603 00000004 80A9          MOVZ      AR7,AL                ; [CPU_ALU] |345| 
    1604 00000005 BE00          MOVB      XAR6,#0               ; [CPU_ALU] |345| 
    1605 00000006 FF20          MOV       ACC,#32640            ; [CPU_ALU] |345| 
         00000007 7F80 
    1606 00000008 0FA7          CMPL      ACC,XAR7              ; [CPU_ALU] |345| 
    1607 00000009 6006          B         ||$C$L5||,NEQ         ; [CPU_ALU] |345| 
    1608                      ; branchcc occurs ; [] |345| 
    1609 0000000a A9A9          MOVL      ACC,P                 ; [CPU_ALU] |345| 
    1610 0000000b 917F          ANDB      AH,#127               ; [CPU_ALU] |345| 
    1611 0000000c FF58          TEST      ACC                   ; [CPU_ALU] |345| 
    1612 0000000d 56B0          MOVB      XAR6,#1,NEQ           ; [CPU_ALU] |345| 
         0000000e 01A6 
    1613 0000000f       ||$C$L5||:    
    1614 0000000f 92A6          MOV       AL,AR6                ; [CPU_ALU] |345| 
    1615              $C$DW$123       .dwtag  DW_TAG_TI_branch
    1616                      .dwattr $C$DW$123, DW_AT_low_pc(0x00)
    1617                      .dwattr $C$DW$123, DW_AT_TI_return
    1618              
    1619 00000010 0006          LRETR     ; [CPU_ALU] 
    1620                      ; return occurs ; [] 
    1621                      .dwattr $C$DW$120, DW_AT_TI_end_file("C:/ti/ccs1210/ccs/tools/compiler/ti-cgt-c2000_22.6.0.LTS/includ
    1622                      .dwattr $C$DW$120, DW_AT_TI_end_line(0x15a)
    1623                      .dwattr $C$DW$120, DW_AT_TI_end_column(0x2e)
    1624                      .dwendentry
    1625                      .dwendtag $C$DW$120
    1626              
    1627 00000000               .sect   ".text:__isnan"
    1628                      .clink
TMS320C2000 Assembler PC v22.6.0 Tue Dec 20 15:55:14 2022

Copyright (c) 1996-2018 Texas Instruments Incorporated
obc_7_4kw.asm                                                        PAGE   32

    1629                      .global ||__isnan||
    1630              
    1631              $C$DW$124       .dwtag  DW_TAG_subprogram
    1632                      .dwattr $C$DW$124, DW_AT_name("__isnan")
    1633                      .dwattr $C$DW$124, DW_AT_low_pc(||__isnan||)
    1634                      .dwattr $C$DW$124, DW_AT_high_pc(0x00)
    1635                      .dwattr $C$DW$124, DW_AT_linkage_name("__isnan")
    1636                      .dwattr $C$DW$124, DW_AT_external
    1637                      .dwattr $C$DW$124, DW_AT_type(*$C$DW$T$10)
    1638                      .dwattr $C$DW$124, DW_AT_decl_file("C:/ti/ccs1210/ccs/tools/compiler/ti-cgt-c2000_22.6.0.LTS/include/
    1639                      .dwattr $C$DW$124, DW_AT_decl_line(0x155)
    1640                      .dwattr $C$DW$124, DW_AT_decl_column(0x18)
    1641                      .dwattr $C$DW$124, DW_AT_TI_max_frame_size(-6)
    1642                      .dwpsn  file "C:/ti/ccs1210/ccs/tools/compiler/ti-cgt-c2000_22.6.0.LTS/include/_defs.h",line 342,colu
    1643              
    1644                      .dwfde $C$DW$CIE, ||__isnan||
    1645              $C$DW$125       .dwtag  DW_TAG_formal_parameter
    1646                      .dwattr $C$DW$125, DW_AT_name("d")
    1647                      .dwattr $C$DW$125, DW_AT_type(*$C$DW$T$17)
    1648                      .dwattr $C$DW$125, DW_AT_location[DW_OP_regx 0x29]
    1649              
    1650              
    1651              ;***************************************************************
    1652              ;* FNAME: __isnan                       FR SIZE:   4           *
    1653              ;*                                                             *
    1654              ;* FUNCTION ENVIRONMENT                                        *
    1655              ;*                                                             *
    1656              ;* FUNCTION PROPERTIES                                         *
    1657              ;*                            4 Parameter,  0 Auto,  0 SOE     *
    1658              ;***************************************************************
    1659              
    1660 00000000       ||__isnan||:
    1661              ;* AR7   assigned to $O$K3
    1662              ;* AR4   assigned to $O$S1
    1663                      .dwcfi  cfa_offset, -2
    1664                      .dwcfi  save_reg_to_mem, 26, 0
    1665 00000000 FE04          ADDB      SP,#4                 ; [CPU_ARAU] 
    1666                      .dwcfi  cfa_offset, -6
    1667                      .dwpsn  file "C:/ti/ccs1210/ccs/tools/compiler/ti-cgt-c2000_22.6.0.LTS/include/_defs.h",line 342,colu
    1668 00000001 BFAB          MOV32     P,R0L                 ; [CPU_FPU] |342| 
         00000002 0F10 
    1669 00000003 28AC          MOV       T,#48                 ; [CPU_ALU] |342| 
         00000004 0030 
    1670 00000005 BFA9          MOV32     ACC,R0H               ; [CPU_FPU] |342| 
         00000006 0F12 
    1671 00000007 A9A7          MOVL      XAR7,P                ; [CPU_ALU] |342| 
    1672 00000008 1EA6          MOVL      XAR6,ACC              ; [CPU_ALU] |342| 
    1673 00000009 D400          MOVB      XAR4,#0               ; [CPU_ALU] |342| 
    1674 0000000a 565B          LSR64     ACC:P,T               ; [CPU_ALU] |342| 
    1675 0000000b 2BAA          MOV       PH,#0                 ; [CPU_ALU] |342| 
    1676 0000000c 18AB          AND       PL,#0x7ff0            ; [CPU_ALU] |342| 
         0000000d 7FF0 
    1677 0000000e FF20          MOV       ACC,#32752            ; [CPU_ALU] |342| 
         0000000f 7FF0 
    1678 00000010 0FAB          CMPL      ACC,P                 ; [CPU_ALU] |342| 
TMS320C2000 Assembler PC v22.6.0 Tue Dec 20 15:55:14 2022

Copyright (c) 1996-2018 Texas Instruments Incorporated
obc_7_4kw.asm                                                        PAGE   33

    1679 00000011 6013          B         ||$C$L6||,NEQ         ; [CPU_ALU] |342| 
    1680                      ; branchcc occurs ; [] |342| 
    1681 00000012 06A6          MOVL      ACC,XAR6              ; [CPU_ALU] |342| 
    1682 00000013 A3A7          MOVL      P,XAR7                ; [CPU_ALU] |342| 
    1683 00000014 BE00          MOVB      XAR6,#0               ; [CPU_ALU] |342| 
    1684 00000015 18A9          AND       AL,#65535             ; [CPU_ALU] |342| 
         00000016 FFFF 
    1685 00000017 910F          ANDB      AH,#15                ; [CPU_ALU] |342| 
    1686 00000018 18AB          AND       PL,#65535             ; [CPU_ALU] |342| 
         00000019 FFFF 
    1687 0000001a 18AA          AND       PH,#65535             ; [CPU_ALU] |342| 
         0000001b FFFF 
    1688 0000001c C244          MOVL      *-SP[4],XAR6          ; [CPU_FPU] |342| 
    1689 0000001d 2B42          MOV       *-SP[2],#0            ; [CPU_FPU] |342| 
    1690 0000001e 2B41          MOV       *-SP[1],#0            ; [CPU_FPU] |342| 
    1691              $C$DW$126       .dwtag  DW_TAG_TI_branch
    1692                      .dwattr $C$DW$126, DW_AT_low_pc(0x00)
    1693                      .dwattr $C$DW$126, DW_AT_name("__c28xabi_cmpull")
    1694                      .dwattr $C$DW$126, DW_AT_TI_call
    1695              
    1696 0000001f 7640!         LCR       #||__c28xabi_cmpull|| ; [CPU_ALU] |342| 
         00000020 0000 
    1697                      ; call occurs [#||__c28xabi_cmpull||] ; [] |342| 
    1698 00000021 5200          CMPB      AL,#0                 ; [CPU_ALU] |342| 
    1699 00000022 56B0          MOVB      XAR4,#1,NEQ           ; [CPU_ALU] |342| 
         00000023 01A4 
    1700 00000024       ||$C$L6||:    
    1701 00000024 FE84          SUBB      SP,#4                 ; [CPU_ARAU] 
    1702                      .dwcfi  cfa_offset, -2
    1703 00000025 92A4          MOV       AL,AR4                ; [CPU_ALU] |342| 
    1704              $C$DW$127       .dwtag  DW_TAG_TI_branch
    1705                      .dwattr $C$DW$127, DW_AT_low_pc(0x00)
    1706                      .dwattr $C$DW$127, DW_AT_TI_return
    1707              
    1708 00000026 0006          LRETR     ; [CPU_ALU] 
    1709                      ; return occurs ; [] 
    1710                      .dwattr $C$DW$124, DW_AT_TI_end_file("C:/ti/ccs1210/ccs/tools/compiler/ti-cgt-c2000_22.6.0.LTS/includ
    1711                      .dwattr $C$DW$124, DW_AT_TI_end_line(0x157)
    1712                      .dwattr $C$DW$124, DW_AT_TI_end_column(0x2f)
    1713                      .dwendentry
    1714                      .dwendtag $C$DW$124
    1715              
    1716 00000000               .sect   ".text:__isinfl"
    1717                      .clink
    1718                      .global ||__isinfl||
    1719              
    1720              $C$DW$128       .dwtag  DW_TAG_subprogram
    1721                      .dwattr $C$DW$128, DW_AT_name("__isinfl")
    1722                      .dwattr $C$DW$128, DW_AT_low_pc(||__isinfl||)
    1723                      .dwattr $C$DW$128, DW_AT_high_pc(0x00)
    1724                      .dwattr $C$DW$128, DW_AT_linkage_name("__isinfl")
    1725                      .dwattr $C$DW$128, DW_AT_external
    1726                      .dwattr $C$DW$128, DW_AT_type(*$C$DW$T$10)
    1727                      .dwattr $C$DW$128, DW_AT_decl_file("C:/ti/ccs1210/ccs/tools/compiler/ti-cgt-c2000_22.6.0.LTS/include/
    1728                      .dwattr $C$DW$128, DW_AT_decl_line(0x17a)
TMS320C2000 Assembler PC v22.6.0 Tue Dec 20 15:55:14 2022

Copyright (c) 1996-2018 Texas Instruments Incorporated
obc_7_4kw.asm                                                        PAGE   34

    1729                      .dwattr $C$DW$128, DW_AT_decl_column(0x18)
    1730                      .dwattr $C$DW$128, DW_AT_TI_max_frame_size(-6)
    1731                      .dwpsn  file "C:/ti/ccs1210/ccs/tools/compiler/ti-cgt-c2000_22.6.0.LTS/include/_defs.h",line 379,colu
    1732              
    1733                      .dwfde $C$DW$CIE, ||__isinfl||
    1734              $C$DW$129       .dwtag  DW_TAG_formal_parameter
    1735                      .dwattr $C$DW$129, DW_AT_name("e")
    1736                      .dwattr $C$DW$129, DW_AT_type(*$C$DW$T$18)
    1737                      .dwattr $C$DW$129, DW_AT_location[DW_OP_regx 0x29]
    1738              
    1739              
    1740              ;***************************************************************
    1741              ;* FNAME: __isinfl                      FR SIZE:   4           *
    1742              ;*                                                             *
    1743              ;* FUNCTION ENVIRONMENT                                        *
    1744              ;*                                                             *
    1745              ;* FUNCTION PROPERTIES                                         *
    1746              ;*                            4 Parameter,  0 Auto,  0 SOE     *
    1747              ;***************************************************************
    1748              
    1749 00000000       ||__isinfl||:
    1750              ;* AR7   assigned to $O$K3
    1751              ;* AR4   assigned to $O$S1
    1752                      .dwcfi  cfa_offset, -2
    1753                      .dwcfi  save_reg_to_mem, 26, 0
    1754 00000000 FE04          ADDB      SP,#4                 ; [CPU_ARAU] 
    1755                      .dwcfi  cfa_offset, -6
    1756                      .dwpsn  file "C:/ti/ccs1210/ccs/tools/compiler/ti-cgt-c2000_22.6.0.LTS/include/_defs.h",line 379,colu
    1757 00000001 BFAB          MOV32     P,R0L                 ; [CPU_FPU] |379| 
         00000002 0F10 
    1758 00000003 28AC          MOV       T,#48                 ; [CPU_ALU] |379| 
         00000004 0030 
    1759 00000005 BFA9          MOV32     ACC,R0H               ; [CPU_FPU] |379| 
         00000006 0F12 
    1760 00000007 A9A7          MOVL      XAR7,P                ; [CPU_ALU] |379| 
    1761 00000008 1EA6          MOVL      XAR6,ACC              ; [CPU_ALU] |379| 
    1762 00000009 D400          MOVB      XAR4,#0               ; [CPU_ALU] |379| 
    1763 0000000a 565B          LSR64     ACC:P,T               ; [CPU_ALU] |379| 
    1764 0000000b 2BAA          MOV       PH,#0                 ; [CPU_ALU] |379| 
    1765 0000000c 18AB          AND       PL,#0x7ff0            ; [CPU_ALU] |379| 
         0000000d 7FF0 
    1766 0000000e FF20          MOV       ACC,#32752            ; [CPU_ALU] |379| 
         0000000f 7FF0 
    1767 00000010 0FAB          CMPL      ACC,P                 ; [CPU_ALU] |379| 
    1768 00000011 6013          B         ||$C$L7||,NEQ         ; [CPU_ALU] |379| 
    1769                      ; branchcc occurs ; [] |379| 
    1770 00000012 06A6          MOVL      ACC,XAR6              ; [CPU_ALU] |379| 
    1771 00000013 A3A7          MOVL      P,XAR7                ; [CPU_ALU] |379| 
    1772 00000014 BE00          MOVB      XAR6,#0               ; [CPU_ALU] |379| 
    1773 00000015 18A9          AND       AL,#65535             ; [CPU_ALU] |379| 
         00000016 FFFF 
    1774 00000017 910F          ANDB      AH,#15                ; [CPU_ALU] |379| 
    1775 00000018 18AB          AND       PL,#65535             ; [CPU_ALU] |379| 
         00000019 FFFF 
    1776 0000001a 18AA          AND       PH,#65535             ; [CPU_ALU] |379| 
TMS320C2000 Assembler PC v22.6.0 Tue Dec 20 15:55:14 2022

Copyright (c) 1996-2018 Texas Instruments Incorporated
obc_7_4kw.asm                                                        PAGE   35

         0000001b FFFF 
    1777 0000001c C244          MOVL      *-SP[4],XAR6          ; [CPU_FPU] |379| 
    1778 0000001d 2B42          MOV       *-SP[2],#0            ; [CPU_FPU] |379| 
    1779 0000001e 2B41          MOV       *-SP[1],#0            ; [CPU_FPU] |379| 
    1780              $C$DW$130       .dwtag  DW_TAG_TI_branch
    1781                      .dwattr $C$DW$130, DW_AT_low_pc(0x00)
    1782                      .dwattr $C$DW$130, DW_AT_name("__c28xabi_cmpull")
    1783                      .dwattr $C$DW$130, DW_AT_TI_call
    1784              
    1785 0000001f 7640!         LCR       #||__c28xabi_cmpull|| ; [CPU_ALU] |379| 
         00000020 0000 
    1786                      ; call occurs [#||__c28xabi_cmpull||] ; [] |379| 
    1787 00000021 5200          CMPB      AL,#0                 ; [CPU_ALU] |379| 
    1788 00000022 56B1          MOVB      XAR4,#1,EQ            ; [CPU_ALU] |379| 
         00000023 01A4 
    1789 00000024       ||$C$L7||:    
    1790 00000024 FE84          SUBB      SP,#4                 ; [CPU_ARAU] 
    1791                      .dwcfi  cfa_offset, -2
    1792 00000025 92A4          MOV       AL,AR4                ; [CPU_ALU] |379| 
    1793              $C$DW$131       .dwtag  DW_TAG_TI_branch
    1794                      .dwattr $C$DW$131, DW_AT_low_pc(0x00)
    1795                      .dwattr $C$DW$131, DW_AT_TI_return
    1796              
    1797 00000026 0006          LRETR     ; [CPU_ALU] 
    1798                      ; return occurs ; [] 
    1799                      .dwattr $C$DW$128, DW_AT_TI_end_file("C:/ti/ccs1210/ccs/tools/compiler/ti-cgt-c2000_22.6.0.LTS/includ
    1800                      .dwattr $C$DW$128, DW_AT_TI_end_line(0x17b)
    1801                      .dwattr $C$DW$128, DW_AT_TI_end_column(0x4c)
    1802                      .dwendentry
    1803                      .dwendtag $C$DW$128
    1804              
    1805 00000000               .sect   ".text:__isinff"
    1806                      .clink
    1807                      .global ||__isinff||
    1808              
    1809              $C$DW$132       .dwtag  DW_TAG_subprogram
    1810                      .dwattr $C$DW$132, DW_AT_name("__isinff")
    1811                      .dwattr $C$DW$132, DW_AT_low_pc(||__isinff||)
    1812                      .dwattr $C$DW$132, DW_AT_high_pc(0x00)
    1813                      .dwattr $C$DW$132, DW_AT_linkage_name("__isinff")
    1814                      .dwattr $C$DW$132, DW_AT_external
    1815                      .dwattr $C$DW$132, DW_AT_type(*$C$DW$T$10)
    1816                      .dwattr $C$DW$132, DW_AT_decl_file("C:/ti/ccs1210/ccs/tools/compiler/ti-cgt-c2000_22.6.0.LTS/include/
    1817                      .dwattr $C$DW$132, DW_AT_decl_line(0x176)
    1818                      .dwattr $C$DW$132, DW_AT_decl_column(0x18)
    1819                      .dwattr $C$DW$132, DW_AT_TI_max_frame_size(-2)
    1820                      .dwpsn  file "C:/ti/ccs1210/ccs/tools/compiler/ti-cgt-c2000_22.6.0.LTS/include/_defs.h",line 375,colu
    1821              
    1822                      .dwfde $C$DW$CIE, ||__isinff||
    1823              $C$DW$133       .dwtag  DW_TAG_formal_parameter
    1824                      .dwattr $C$DW$133, DW_AT_name("f")
    1825                      .dwattr $C$DW$133, DW_AT_type(*$C$DW$T$16)
    1826                      .dwattr $C$DW$133, DW_AT_location[DW_OP_regx 0x2b]
    1827              
    1828              
TMS320C2000 Assembler PC v22.6.0 Tue Dec 20 15:55:14 2022

Copyright (c) 1996-2018 Texas Instruments Incorporated
obc_7_4kw.asm                                                        PAGE   36

    1829              ;***************************************************************
    1830              ;* FNAME: __isinff                      FR SIZE:   0           *
    1831              ;*                                                             *
    1832              ;* FUNCTION ENVIRONMENT                                        *
    1833              ;*                                                             *
    1834              ;* FUNCTION PROPERTIES                                         *
    1835              ;*                            0 Parameter,  0 Auto,  0 SOE     *
    1836              ;***************************************************************
    1837              
    1838              ||__isinff||:
    1839              ;* PL    assigned to $O$K3
    1840              ;* AR6   assigned to $O$S1
    1841              ;* R0    assigned to f
    1842              $C$DW$134       .dwtag  DW_TAG_variable
    1843                      .dwattr $C$DW$134, DW_AT_name("f")
    1844                      .dwattr $C$DW$134, DW_AT_type(*$C$DW$T$75)
    1845                      .dwattr $C$DW$134, DW_AT_location[DW_OP_regx 0x2b]
    1846              
    1847                      .dwcfi  cfa_offset, -2
    1848                      .dwcfi  save_reg_to_mem, 26, 0
    1849                      .dwpsn  file "C:/ti/ccs1210/ccs/tools/compiler/ti-cgt-c2000_22.6.0.LTS/include/_defs.h",line 375,colu
    1850 00000000 BFAB          MOV32     P,R0H                 ; [CPU_FPU] |375| 
         00000001 0F12 
    1851 00000002 CCAA          AND       AL,PH,#0x7f80         ; [CPU_ALU] |375| 
         00000003 7F80 
    1852 00000004 80A9          MOVZ      AR7,AL                ; [CPU_ALU] |375| 
    1853 00000005 BE00          MOVB      XAR6,#0               ; [CPU_ALU] |375| 
    1854 00000006 FF20          MOV       ACC,#32640            ; [CPU_ALU] |375| 
         00000007 7F80 
    1855 00000008 0FA7          CMPL      ACC,XAR7              ; [CPU_ALU] |375| 
    1856 00000009 6006          B         ||$C$L8||,NEQ         ; [CPU_ALU] |375| 
    1857                      ; branchcc occurs ; [] |375| 
    1858 0000000a A9A9          MOVL      ACC,P                 ; [CPU_ALU] |375| 
    1859 0000000b 917F          ANDB      AH,#127               ; [CPU_ALU] |375| 
    1860 0000000c FF58          TEST      ACC                   ; [CPU_ALU] |375| 
    1861 0000000d 56B1          MOVB      XAR6,#1,EQ            ; [CPU_ALU] |375| 
         0000000e 01A6 
    1862 0000000f       ||$C$L8||:    
    1863 0000000f 92A6          MOV       AL,AR6                ; [CPU_ALU] |375| 
    1864              $C$DW$135       .dwtag  DW_TAG_TI_branch
    1865                      .dwattr $C$DW$135, DW_AT_low_pc(0x00)
    1866                      .dwattr $C$DW$135, DW_AT_TI_return
    1867              
    1868 00000010 0006          LRETR     ; [CPU_ALU] 
    1869                      ; return occurs ; [] 
    1870                      .dwattr $C$DW$132, DW_AT_TI_end_file("C:/ti/ccs1210/ccs/tools/compiler/ti-cgt-c2000_22.6.0.LTS/includ
    1871                      .dwattr $C$DW$132, DW_AT_TI_end_line(0x177)
    1872                      .dwattr $C$DW$132, DW_AT_TI_end_column(0x48)
    1873                      .dwendentry
    1874                      .dwendtag $C$DW$132
    1875              
    1876 00000000               .sect   ".text:__isinf"
    1877                      .clink
    1878                      .global ||__isinf||
    1879              
TMS320C2000 Assembler PC v22.6.0 Tue Dec 20 15:55:14 2022

Copyright (c) 1996-2018 Texas Instruments Incorporated
obc_7_4kw.asm                                                        PAGE   37

    1880              $C$DW$136       .dwtag  DW_TAG_subprogram
    1881                      .dwattr $C$DW$136, DW_AT_name("__isinf")
    1882                      .dwattr $C$DW$136, DW_AT_low_pc(||__isinf||)
    1883                      .dwattr $C$DW$136, DW_AT_high_pc(0x00)
    1884                      .dwattr $C$DW$136, DW_AT_linkage_name("__isinf")
    1885                      .dwattr $C$DW$136, DW_AT_external
    1886                      .dwattr $C$DW$136, DW_AT_type(*$C$DW$T$10)
    1887                      .dwattr $C$DW$136, DW_AT_decl_file("C:/ti/ccs1210/ccs/tools/compiler/ti-cgt-c2000_22.6.0.LTS/include/
    1888                      .dwattr $C$DW$136, DW_AT_decl_line(0x178)
    1889                      .dwattr $C$DW$136, DW_AT_decl_column(0x18)
    1890                      .dwattr $C$DW$136, DW_AT_TI_max_frame_size(-6)
    1891                      .dwpsn  file "C:/ti/ccs1210/ccs/tools/compiler/ti-cgt-c2000_22.6.0.LTS/include/_defs.h",line 377,colu
    1892              
    1893                      .dwfde $C$DW$CIE, ||__isinf||
    1894              $C$DW$137       .dwtag  DW_TAG_formal_parameter
    1895                      .dwattr $C$DW$137, DW_AT_name("d")
    1896                      .dwattr $C$DW$137, DW_AT_type(*$C$DW$T$17)
    1897                      .dwattr $C$DW$137, DW_AT_location[DW_OP_regx 0x29]
    1898              
    1899              
    1900              ;***************************************************************
    1901              ;* FNAME: __isinf                       FR SIZE:   4           *
    1902              ;*                                                             *
    1903              ;* FUNCTION ENVIRONMENT                                        *
    1904              ;*                                                             *
    1905              ;* FUNCTION PROPERTIES                                         *
    1906              ;*                            4 Parameter,  0 Auto,  0 SOE     *
    1907              ;***************************************************************
    1908              
    1909 00000000       ||__isinf||:
    1910              ;* AR7   assigned to $O$K3
    1911              ;* AR4   assigned to $O$S1
    1912                      .dwcfi  cfa_offset, -2
    1913                      .dwcfi  save_reg_to_mem, 26, 0
    1914 00000000 FE04          ADDB      SP,#4                 ; [CPU_ARAU] 
    1915                      .dwcfi  cfa_offset, -6
    1916                      .dwpsn  file "C:/ti/ccs1210/ccs/tools/compiler/ti-cgt-c2000_22.6.0.LTS/include/_defs.h",line 377,colu
    1917 00000001 BFAB          MOV32     P,R0L                 ; [CPU_FPU] |377| 
         00000002 0F10 
    1918 00000003 28AC          MOV       T,#48                 ; [CPU_ALU] |377| 
         00000004 0030 
    1919 00000005 BFA9          MOV32     ACC,R0H               ; [CPU_FPU] |377| 
         00000006 0F12 
    1920 00000007 A9A7          MOVL      XAR7,P                ; [CPU_ALU] |377| 
    1921 00000008 1EA6          MOVL      XAR6,ACC              ; [CPU_ALU] |377| 
    1922 00000009 D400          MOVB      XAR4,#0               ; [CPU_ALU] |377| 
    1923 0000000a 565B          LSR64     ACC:P,T               ; [CPU_ALU] |377| 
    1924 0000000b 2BAA          MOV       PH,#0                 ; [CPU_ALU] |377| 
    1925 0000000c 18AB          AND       PL,#0x7ff0            ; [CPU_ALU] |377| 
         0000000d 7FF0 
    1926 0000000e FF20          MOV       ACC,#32752            ; [CPU_ALU] |377| 
         0000000f 7FF0 
    1927 00000010 0FAB          CMPL      ACC,P                 ; [CPU_ALU] |377| 
    1928 00000011 6013          B         ||$C$L9||,NEQ         ; [CPU_ALU] |377| 
    1929                      ; branchcc occurs ; [] |377| 
TMS320C2000 Assembler PC v22.6.0 Tue Dec 20 15:55:14 2022

Copyright (c) 1996-2018 Texas Instruments Incorporated
obc_7_4kw.asm                                                        PAGE   38

    1930 00000012 06A6          MOVL      ACC,XAR6              ; [CPU_ALU] |377| 
    1931 00000013 A3A7          MOVL      P,XAR7                ; [CPU_ALU] |377| 
    1932 00000014 BE00          MOVB      XAR6,#0               ; [CPU_ALU] |377| 
    1933 00000015 18A9          AND       AL,#65535             ; [CPU_ALU] |377| 
         00000016 FFFF 
    1934 00000017 910F          ANDB      AH,#15                ; [CPU_ALU] |377| 
    1935 00000018 18AB          AND       PL,#65535             ; [CPU_ALU] |377| 
         00000019 FFFF 
    1936 0000001a 18AA          AND       PH,#65535             ; [CPU_ALU] |377| 
         0000001b FFFF 
    1937 0000001c C244          MOVL      *-SP[4],XAR6          ; [CPU_FPU] |377| 
    1938 0000001d 2B42          MOV       *-SP[2],#0            ; [CPU_FPU] |377| 
    1939 0000001e 2B41          MOV       *-SP[1],#0            ; [CPU_FPU] |377| 
    1940              $C$DW$138       .dwtag  DW_TAG_TI_branch
    1941                      .dwattr $C$DW$138, DW_AT_low_pc(0x00)
    1942                      .dwattr $C$DW$138, DW_AT_name("__c28xabi_cmpull")
    1943                      .dwattr $C$DW$138, DW_AT_TI_call
    1944              
    1945 0000001f 7640!         LCR       #||__c28xabi_cmpull|| ; [CPU_ALU] |377| 
         00000020 0000 
    1946                      ; call occurs [#||__c28xabi_cmpull||] ; [] |377| 
    1947 00000021 5200          CMPB      AL,#0                 ; [CPU_ALU] |377| 
    1948 00000022 56B1          MOVB      XAR4,#1,EQ            ; [CPU_ALU] |377| 
         00000023 01A4 
    1949 00000024       ||$C$L9||:    
    1950 00000024 FE84          SUBB      SP,#4                 ; [CPU_ARAU] 
    1951                      .dwcfi  cfa_offset, -2
    1952 00000025 92A4          MOV       AL,AR4                ; [CPU_ALU] |377| 
    1953              $C$DW$139       .dwtag  DW_TAG_TI_branch
    1954                      .dwattr $C$DW$139, DW_AT_low_pc(0x00)
    1955                      .dwattr $C$DW$139, DW_AT_TI_return
    1956              
    1957 00000026 0006          LRETR     ; [CPU_ALU] 
    1958                      ; return occurs ; [] 
    1959                      .dwattr $C$DW$136, DW_AT_TI_end_file("C:/ti/ccs1210/ccs/tools/compiler/ti-cgt-c2000_22.6.0.LTS/includ
    1960                      .dwattr $C$DW$136, DW_AT_TI_end_line(0x179)
    1961                      .dwattr $C$DW$136, DW_AT_TI_end_column(0x4a)
    1962                      .dwendentry
    1963                      .dwendtag $C$DW$136
    1964              
    1965 00000000               .sect   ".text:__isfinitel"
    1966                      .clink
    1967                      .global ||__isfinitel||
    1968              
    1969              $C$DW$140       .dwtag  DW_TAG_subprogram
    1970                      .dwattr $C$DW$140, DW_AT_name("__isfinitel")
    1971                      .dwattr $C$DW$140, DW_AT_low_pc(||__isfinitel||)
    1972                      .dwattr $C$DW$140, DW_AT_high_pc(0x00)
    1973                      .dwattr $C$DW$140, DW_AT_linkage_name("__isfinitel")
    1974                      .dwattr $C$DW$140, DW_AT_external
    1975                      .dwattr $C$DW$140, DW_AT_type(*$C$DW$T$10)
    1976                      .dwattr $C$DW$140, DW_AT_decl_file("C:/ti/ccs1210/ccs/tools/compiler/ti-cgt-c2000_22.6.0.LTS/include/
    1977                      .dwattr $C$DW$140, DW_AT_decl_line(0x152)
    1978                      .dwattr $C$DW$140, DW_AT_decl_column(0x18)
    1979                      .dwattr $C$DW$140, DW_AT_TI_max_frame_size(-2)
TMS320C2000 Assembler PC v22.6.0 Tue Dec 20 15:55:14 2022

Copyright (c) 1996-2018 Texas Instruments Incorporated
obc_7_4kw.asm                                                        PAGE   39

    1980                      .dwpsn  file "C:/ti/ccs1210/ccs/tools/compiler/ti-cgt-c2000_22.6.0.LTS/include/_defs.h",line 339,colu
    1981              
    1982                      .dwfde $C$DW$CIE, ||__isfinitel||
    1983              $C$DW$141       .dwtag  DW_TAG_formal_parameter
    1984                      .dwattr $C$DW$141, DW_AT_name("e")
    1985                      .dwattr $C$DW$141, DW_AT_type(*$C$DW$T$18)
    1986                      .dwattr $C$DW$141, DW_AT_location[DW_OP_regx 0x29]
    1987              
    1988              
    1989              ;***************************************************************
    1990              ;* FNAME: __isfinitel                   FR SIZE:   0           *
    1991              ;*                                                             *
    1992              ;* FUNCTION ENVIRONMENT                                        *
    1993              ;*                                                             *
    1994              ;* FUNCTION PROPERTIES                                         *
    1995              ;*                            0 Parameter,  0 Auto,  0 SOE     *
    1996              ;***************************************************************
    1997              
    1998 00000000       ||__isfinitel||:
    1999                      .dwcfi  cfa_offset, -2
    2000                      .dwcfi  save_reg_to_mem, 26, 0
    2001                      .dwpsn  file "C:/ti/ccs1210/ccs/tools/compiler/ti-cgt-c2000_22.6.0.LTS/include/_defs.h",line 339,colu
    2002 00000000 BFAB          MOV32     P,R0L                 ; [CPU_FPU] |339| 
         00000001 0F10 
    2003 00000002 28AC          MOV       T,#48                 ; [CPU_ALU] |339| 
         00000003 0030 
    2004 00000004 BFA9          MOV32     ACC,R0H               ; [CPU_FPU] |339| 
         00000005 0F12 
    2005 00000006 565B          LSR64     ACC:P,T               ; [CPU_ALU] |339| 
    2006 00000007 18AB          AND       PL,#0x7ff0            ; [CPU_ALU] |339| 
         00000008 7FF0 
    2007 00000009 80AB          MOVZ      AR7,PL                ; [CPU_ALU] |339| 
    2008 0000000a FF20          MOV       ACC,#32752            ; [CPU_ALU] |339| 
         0000000b 7FF0 
    2009 0000000c BE00          MOVB      XAR6,#0               ; [CPU_ALU] |339| 
    2010 0000000d 0FA7          CMPL      ACC,XAR7              ; [CPU_ALU] |339| 
    2011 0000000e 56B0          MOVB      XAR6,#1,NEQ           ; [CPU_ALU] |339| 
         0000000f 01A6 
    2012 00000010 92A6          MOV       AL,AR6                ; [CPU_ALU] |339| 
    2013              $C$DW$142       .dwtag  DW_TAG_TI_branch
    2014                      .dwattr $C$DW$142, DW_AT_low_pc(0x00)
    2015                      .dwattr $C$DW$142, DW_AT_TI_return
    2016              
    2017 00000011 0006          LRETR     ; [CPU_ALU] 
    2018                      ; return occurs ; [] 
    2019                      .dwattr $C$DW$140, DW_AT_TI_end_file("C:/ti/ccs1210/ccs/tools/compiler/ti-cgt-c2000_22.6.0.LTS/includ
    2020                      .dwattr $C$DW$140, DW_AT_TI_end_line(0x153)
    2021                      .dwattr $C$DW$140, DW_AT_TI_end_column(0x2f)
    2022                      .dwendentry
    2023                      .dwendtag $C$DW$140
    2024              
    2025 00000000               .sect   ".text:__isfinitef"
    2026                      .clink
    2027                      .global ||__isfinitef||
    2028              
TMS320C2000 Assembler PC v22.6.0 Tue Dec 20 15:55:14 2022

Copyright (c) 1996-2018 Texas Instruments Incorporated
obc_7_4kw.asm                                                        PAGE   40

    2029              $C$DW$143       .dwtag  DW_TAG_subprogram
    2030                      .dwattr $C$DW$143, DW_AT_name("__isfinitef")
    2031                      .dwattr $C$DW$143, DW_AT_low_pc(||__isfinitef||)
    2032                      .dwattr $C$DW$143, DW_AT_high_pc(0x00)
    2033                      .dwattr $C$DW$143, DW_AT_linkage_name("__isfinitef")
    2034                      .dwattr $C$DW$143, DW_AT_external
    2035                      .dwattr $C$DW$143, DW_AT_type(*$C$DW$T$10)
    2036                      .dwattr $C$DW$143, DW_AT_decl_file("C:/ti/ccs1210/ccs/tools/compiler/ti-cgt-c2000_22.6.0.LTS/include/
    2037                      .dwattr $C$DW$143, DW_AT_decl_line(0x150)
    2038                      .dwattr $C$DW$143, DW_AT_decl_column(0x18)
    2039                      .dwattr $C$DW$143, DW_AT_TI_max_frame_size(-2)
    2040                      .dwpsn  file "C:/ti/ccs1210/ccs/tools/compiler/ti-cgt-c2000_22.6.0.LTS/include/_defs.h",line 337,colu
    2041              
    2042                      .dwfde $C$DW$CIE, ||__isfinitef||
    2043              $C$DW$144       .dwtag  DW_TAG_formal_parameter
    2044                      .dwattr $C$DW$144, DW_AT_name("f")
    2045                      .dwattr $C$DW$144, DW_AT_type(*$C$DW$T$16)
    2046                      .dwattr $C$DW$144, DW_AT_location[DW_OP_regx 0x2b]
    2047              
    2048              
    2049              ;***************************************************************
    2050              ;* FNAME: __isfinitef                   FR SIZE:   0           *
    2051              ;*                                                             *
    2052              ;* FUNCTION ENVIRONMENT                                        *
    2053              ;*                                                             *
    2054              ;* FUNCTION PROPERTIES                                         *
    2055              ;*                            0 Parameter,  0 Auto,  0 SOE     *
    2056              ;***************************************************************
    2057              
    2058              ||__isfinitef||:
    2059              ;* R0    assigned to f
    2060              $C$DW$145       .dwtag  DW_TAG_variable
    2061                      .dwattr $C$DW$145, DW_AT_name("f")
    2062                      .dwattr $C$DW$145, DW_AT_type(*$C$DW$T$75)
    2063                      .dwattr $C$DW$145, DW_AT_location[DW_OP_regx 0x2b]
    2064              
    2065                      .dwcfi  cfa_offset, -2
    2066                      .dwcfi  save_reg_to_mem, 26, 0
    2067                      .dwpsn  file "C:/ti/ccs1210/ccs/tools/compiler/ti-cgt-c2000_22.6.0.LTS/include/_defs.h",line 337,colu
    2068 00000000 BFAB          MOV32     P,R0H                 ; [CPU_FPU] |337| 
         00000001 0F12 
    2069 00000002 18AA          AND       PH,#0x7f80            ; [CPU_ALU] |337| 
         00000003 7F80 
    2070 00000004 80AA          MOVZ      AR7,PH                ; [CPU_ALU] |337| 
    2071 00000005 FF20          MOV       ACC,#32640            ; [CPU_ALU] |337| 
         00000006 7F80 
    2072 00000007 BE00          MOVB      XAR6,#0               ; [CPU_ALU] |337| 
    2073 00000008 0FA7          CMPL      ACC,XAR7              ; [CPU_ALU] |337| 
    2074 00000009 56B0          MOVB      XAR6,#1,NEQ           ; [CPU_ALU] |337| 
         0000000a 01A6 
    2075 0000000b 92A6          MOV       AL,AR6                ; [CPU_ALU] |337| 
    2076              $C$DW$146       .dwtag  DW_TAG_TI_branch
    2077                      .dwattr $C$DW$146, DW_AT_low_pc(0x00)
    2078                      .dwattr $C$DW$146, DW_AT_TI_return
    2079              
TMS320C2000 Assembler PC v22.6.0 Tue Dec 20 15:55:14 2022

Copyright (c) 1996-2018 Texas Instruments Incorporated
obc_7_4kw.asm                                                        PAGE   41

    2080 0000000c 0006          LRETR     ; [CPU_ALU] 
    2081                      ; return occurs ; [] 
    2082                      .dwattr $C$DW$143, DW_AT_TI_end_file("C:/ti/ccs1210/ccs/tools/compiler/ti-cgt-c2000_22.6.0.LTS/includ
    2083                      .dwattr $C$DW$143, DW_AT_TI_end_line(0x151)
    2084                      .dwattr $C$DW$143, DW_AT_TI_end_column(0x2d)
    2085                      .dwendentry
    2086                      .dwendtag $C$DW$143
    2087              
    2088 00000000               .sect   ".text:__isfinite"
    2089                      .clink
    2090                      .global ||__isfinite||
    2091              
    2092              $C$DW$147       .dwtag  DW_TAG_subprogram
    2093                      .dwattr $C$DW$147, DW_AT_name("__isfinite")
    2094                      .dwattr $C$DW$147, DW_AT_low_pc(||__isfinite||)
    2095                      .dwattr $C$DW$147, DW_AT_high_pc(0x00)
    2096                      .dwattr $C$DW$147, DW_AT_linkage_name("__isfinite")
    2097                      .dwattr $C$DW$147, DW_AT_external
    2098                      .dwattr $C$DW$147, DW_AT_type(*$C$DW$T$10)
    2099                      .dwattr $C$DW$147, DW_AT_decl_file("C:/ti/ccs1210/ccs/tools/compiler/ti-cgt-c2000_22.6.0.LTS/include/
    2100                      .dwattr $C$DW$147, DW_AT_decl_line(0x14e)
    2101                      .dwattr $C$DW$147, DW_AT_decl_column(0x18)
    2102                      .dwattr $C$DW$147, DW_AT_TI_max_frame_size(-2)
    2103                      .dwpsn  file "C:/ti/ccs1210/ccs/tools/compiler/ti-cgt-c2000_22.6.0.LTS/include/_defs.h",line 335,colu
    2104              
    2105                      .dwfde $C$DW$CIE, ||__isfinite||
    2106              $C$DW$148       .dwtag  DW_TAG_formal_parameter
    2107                      .dwattr $C$DW$148, DW_AT_name("d")
    2108                      .dwattr $C$DW$148, DW_AT_type(*$C$DW$T$17)
    2109                      .dwattr $C$DW$148, DW_AT_location[DW_OP_regx 0x29]
    2110              
    2111              
    2112              ;***************************************************************
    2113              ;* FNAME: __isfinite                    FR SIZE:   0           *
    2114              ;*                                                             *
    2115              ;* FUNCTION ENVIRONMENT                                        *
    2116              ;*                                                             *
    2117              ;* FUNCTION PROPERTIES                                         *
    2118              ;*                            0 Parameter,  0 Auto,  0 SOE     *
    2119              ;***************************************************************
    2120              
    2121 00000000       ||__isfinite||:
    2122                      .dwcfi  cfa_offset, -2
    2123                      .dwcfi  save_reg_to_mem, 26, 0
    2124                      .dwpsn  file "C:/ti/ccs1210/ccs/tools/compiler/ti-cgt-c2000_22.6.0.LTS/include/_defs.h",line 335,colu
    2125 00000000 BFAB          MOV32     P,R0L                 ; [CPU_FPU] |335| 
         00000001 0F10 
    2126 00000002 28AC          MOV       T,#48                 ; [CPU_ALU] |335| 
         00000003 0030 
    2127 00000004 BFA9          MOV32     ACC,R0H               ; [CPU_FPU] |335| 
         00000005 0F12 
    2128 00000006 565B          LSR64     ACC:P,T               ; [CPU_ALU] |335| 
    2129 00000007 18AB          AND       PL,#0x7ff0            ; [CPU_ALU] |335| 
         00000008 7FF0 
    2130 00000009 80AB          MOVZ      AR7,PL                ; [CPU_ALU] |335| 
TMS320C2000 Assembler PC v22.6.0 Tue Dec 20 15:55:14 2022

Copyright (c) 1996-2018 Texas Instruments Incorporated
obc_7_4kw.asm                                                        PAGE   42

    2131 0000000a FF20          MOV       ACC,#32752            ; [CPU_ALU] |335| 
         0000000b 7FF0 
    2132 0000000c BE00          MOVB      XAR6,#0               ; [CPU_ALU] |335| 
    2133 0000000d 0FA7          CMPL      ACC,XAR7              ; [CPU_ALU] |335| 
    2134 0000000e 56B0          MOVB      XAR6,#1,NEQ           ; [CPU_ALU] |335| 
         0000000f 01A6 
    2135 00000010 92A6          MOV       AL,AR6                ; [CPU_ALU] |335| 
    2136              $C$DW$149       .dwtag  DW_TAG_TI_branch
    2137                      .dwattr $C$DW$149, DW_AT_low_pc(0x00)
    2138                      .dwattr $C$DW$149, DW_AT_TI_return
    2139              
    2140 00000011 0006          LRETR     ; [CPU_ALU] 
    2141                      ; return occurs ; [] 
    2142                      .dwattr $C$DW$147, DW_AT_TI_end_file("C:/ti/ccs1210/ccs/tools/compiler/ti-cgt-c2000_22.6.0.LTS/includ
    2143                      .dwattr $C$DW$147, DW_AT_TI_end_line(0x14f)
    2144                      .dwattr $C$DW$147, DW_AT_TI_end_column(0x2e)
    2145                      .dwendentry
    2146                      .dwendtag $C$DW$147
    2147              
    2148 00000000               .sect   ".text:__fpclassifyl"
    2149                      .clink
    2150                      .global ||__fpclassifyl||
    2151              
    2152              $C$DW$150       .dwtag  DW_TAG_subprogram
    2153                      .dwattr $C$DW$150, DW_AT_name("__fpclassifyl")
    2154                      .dwattr $C$DW$150, DW_AT_low_pc(||__fpclassifyl||)
    2155                      .dwattr $C$DW$150, DW_AT_high_pc(0x00)
    2156                      .dwattr $C$DW$150, DW_AT_linkage_name("__fpclassifyl")
    2157                      .dwattr $C$DW$150, DW_AT_external
    2158                      .dwattr $C$DW$150, DW_AT_type(*$C$DW$T$10)
    2159                      .dwattr $C$DW$150, DW_AT_decl_file("C:/ti/ccs1210/ccs/tools/compiler/ti-cgt-c2000_22.6.0.LTS/include/
    2160                      .dwattr $C$DW$150, DW_AT_decl_line(0x1ae)
    2161                      .dwattr $C$DW$150, DW_AT_decl_column(0x18)
    2162                      .dwattr $C$DW$150, DW_AT_TI_max_frame_size(-6)
    2163                      .dwpsn  file "C:/ti/ccs1210/ccs/tools/compiler/ti-cgt-c2000_22.6.0.LTS/include/_defs.h",line 431,colu
    2164              
    2165                      .dwfde $C$DW$CIE, ||__fpclassifyl||
    2166              $C$DW$151       .dwtag  DW_TAG_formal_parameter
    2167                      .dwattr $C$DW$151, DW_AT_name("e")
    2168                      .dwattr $C$DW$151, DW_AT_type(*$C$DW$T$18)
    2169                      .dwattr $C$DW$151, DW_AT_location[DW_OP_regx 0x29]
    2170              
    2171              
    2172              ;***************************************************************
    2173              ;* FNAME: __fpclassifyl                 FR SIZE:   4           *
    2174              ;*                                                             *
    2175              ;* FUNCTION ENVIRONMENT                                        *
    2176              ;*                                                             *
    2177              ;* FUNCTION PROPERTIES                                         *
    2178              ;*                            4 Parameter,  0 Auto,  0 SOE     *
    2179              ;***************************************************************
    2180              
    2181 00000000       ||__fpclassifyl||:
    2182              ;* AR5   assigned to $O$K1
    2183                      .dwcfi  cfa_offset, -2
TMS320C2000 Assembler PC v22.6.0 Tue Dec 20 15:55:14 2022

Copyright (c) 1996-2018 Texas Instruments Incorporated
obc_7_4kw.asm                                                        PAGE   43

    2184                      .dwcfi  save_reg_to_mem, 26, 0
    2185 00000000 FE04          ADDB      SP,#4                 ; [CPU_ARAU] 
    2186                      .dwcfi  cfa_offset, -6
    2187                      .dwpsn  file "C:/ti/ccs1210/ccs/tools/compiler/ti-cgt-c2000_22.6.0.LTS/include/_defs.h",line 432,colu
    2188 00000001 BFA6          MOV32     XAR6,R0L              ; [CPU_FPU] |432| 
         00000002 0F10 
    2189 00000003 BFA7          MOV32     XAR7,R0H              ; [CPU_FPU] |432| 
         00000004 0F12 
    2190                      .dwpsn  file "C:/ti/ccs1210/ccs/tools/compiler/ti-cgt-c2000_22.6.0.LTS/include/_defs.h",line 436,colu
    2191 00000005 28AC          MOV       T,#48                 ; [CPU_ALU] |436| 
         00000006 0030 
    2192                      .dwpsn  file "C:/ti/ccs1210/ccs/tools/compiler/ti-cgt-c2000_22.6.0.LTS/include/_defs.h",line 432,colu
    2193 00000007 A3A6          MOVL      P,XAR6                ; [CPU_ALU] |432| 
    2194 00000008 83A6          MOVL      XAR5,XAR6             ; [CPU_ALU] |432| 
    2195 00000009 06A7          MOVL      ACC,XAR7              ; [CPU_ALU] |432| 
    2196                      .dwpsn  file "C:/ti/ccs1210/ccs/tools/compiler/ti-cgt-c2000_22.6.0.LTS/include/_defs.h",line 436,colu
    2197 0000000a 565B          LSR64     ACC:P,T               ; [CPU_ALU] |436| 
    2198 0000000b 18AB          AND       PL,#0x7ff0            ; [CPU_ALU] |436| 
         0000000c 7FF0 
    2199 0000000d 88AB          MOVZ      AR6,PL                ; [CPU_ALU] |436| 
    2200 0000000e FF20          MOV       ACC,#32752            ; [CPU_ALU] |436| 
         0000000f 7FF0 
    2201                      .dwpsn  file "C:/ti/ccs1210/ccs/tools/compiler/ti-cgt-c2000_22.6.0.LTS/include/_defs.h",line 432,colu
    2202 00000010 8AA7          MOVL      XAR4,XAR7             ; [CPU_ALU] |432| 
    2203                      .dwpsn  file "C:/ti/ccs1210/ccs/tools/compiler/ti-cgt-c2000_22.6.0.LTS/include/_defs.h",line 436,colu
    2204 00000011 0FA6          CMPL      ACC,XAR6              ; [CPU_ALU] |436| 
    2205 00000012 6016          B         ||$C$L11||,NEQ        ; [CPU_ALU] |436| 
    2206                      ; branchcc occurs ; [] |436| 
    2207 00000013 A8A9          MOVL      ACC,XAR4              ; [CPU_ALU] |436| 
    2208 00000014 A0AB          MOVL      P,XAR5                ; [CPU_ALU] |436| 
    2209 00000015 BE00          MOVB      XAR6,#0               ; [CPU_ALU] |436| 
    2210 00000016 18A9          AND       AL,#65535             ; [CPU_ALU] |436| 
         00000017 FFFF 
    2211 00000018 910F          ANDB      AH,#15                ; [CPU_ALU] |436| 
    2212 00000019 18AB          AND       PL,#65535             ; [CPU_ALU] |436| 
         0000001a FFFF 
    2213 0000001b 18AA          AND       PH,#65535             ; [CPU_ALU] |436| 
         0000001c FFFF 
    2214 0000001d C244          MOVL      *-SP[4],XAR6          ; [CPU_FPU] |436| 
    2215 0000001e 2B42          MOV       *-SP[2],#0            ; [CPU_FPU] |436| 
    2216 0000001f 2B41          MOV       *-SP[1],#0            ; [CPU_FPU] |436| 
    2217              $C$DW$152       .dwtag  DW_TAG_TI_branch
    2218                      .dwattr $C$DW$152, DW_AT_low_pc(0x00)
    2219                      .dwattr $C$DW$152, DW_AT_name("__c28xabi_cmpull")
    2220                      .dwattr $C$DW$152, DW_AT_TI_call
    2221              
    2222 00000020 7640!         LCR       #||__c28xabi_cmpull|| ; [CPU_ALU] |436| 
         00000021 0000 
    2223                      ; call occurs [#||__c28xabi_cmpull||] ; [] |436| 
    2224 00000022 5200          CMPB      AL,#0                 ; [CPU_ALU] |436| 
    2225 00000023 6103          B         ||$C$L10||,EQ         ; [CPU_ALU] |436| 
    2226                      ; branchcc occurs ; [] |436| 
    2227 00000024 9A02          MOVB      AL,#2                 ; [CPU_ALU] |436| 
    2228 00000025 6F2D          B         ||$C$L14||,UNC        ; [CPU_ALU] |436| 
    2229                      ; branch occurs ; [] |436| 
TMS320C2000 Assembler PC v22.6.0 Tue Dec 20 15:55:14 2022

Copyright (c) 1996-2018 Texas Instruments Incorporated
obc_7_4kw.asm                                                        PAGE   44

    2230 00000026       ||$C$L10||:    
    2231 00000026 9A01          MOVB      AL,#1                 ; [CPU_ALU] |436| 
    2232 00000027 6F2B          B         ||$C$L14||,UNC        ; [CPU_ALU] |436| 
    2233                      ; branch occurs ; [] |436| 
    2234 00000028       ||$C$L11||:    
    2235 00000028 BE00          MOVB      XAR6,#0               ; [CPU_ALU] |436| 
    2236 00000029 A0AB          MOVL      P,XAR5                ; [CPU_ALU] |436| 
    2237 0000002a A8A9          MOVL      ACC,XAR4              ; [CPU_ALU] |436| 
    2238 0000002b 28AC          MOV       T,#52                 ; [CPU_ALU] |436| 
         0000002c 0034 
    2239 0000002d C244          MOVL      *-SP[4],XAR6          ; [CPU_ALU] |436| 
    2240 0000002e 2B42          MOV       *-SP[2],#0            ; [CPU_ALU] |436| 
    2241 0000002f 565B          LSR64     ACC:P,T               ; [CPU_ALU] |436| 
    2242 00000030 2B41          MOV       *-SP[1],#0            ; [CPU_FPU] |436| 
    2243 00000031 9000          ANDB      AL,#0                 ; [CPU_ALU] |436| 
    2244 00000032 9100          ANDB      AH,#0                 ; [CPU_ALU] |436| 
    2245 00000033 18AB          AND       PL,#2047              ; [CPU_ALU] |436| 
         00000034 07FF 
    2246 00000035 18AA          AND       PH,#0                 ; [CPU_ALU] |436| 
         00000036 0000 
    2247              $C$DW$153       .dwtag  DW_TAG_TI_branch
    2248                      .dwattr $C$DW$153, DW_AT_low_pc(0x00)
    2249                      .dwattr $C$DW$153, DW_AT_name("__c28xabi_cmpull")
    2250                      .dwattr $C$DW$153, DW_AT_TI_call
    2251              
    2252 00000037 7640!         LCR       #||__c28xabi_cmpull|| ; [CPU_ALU] |436| 
         00000038 0000 
    2253                      ; call occurs [#||__c28xabi_cmpull||] ; [] |436| 
    2254 00000039 5200          CMPB      AL,#0                 ; [CPU_ALU] |436| 
    2255 0000003a 6104          B         ||$C$L12||,EQ         ; [CPU_ALU] |436| 
    2256                      ; branchcc occurs ; [] |436| 
    2257 0000003b 28A9          MOV       AL,#-1                ; [CPU_ALU] |436| 
         0000003c FFFF 
    2258 0000003d 6F15          B         ||$C$L14||,UNC        ; [CPU_ALU] |436| 
    2259                      ; branch occurs ; [] |436| 
    2260 0000003e       ||$C$L12||:    
    2261 0000003e C244          MOVL      *-SP[4],XAR6          ; [CPU_ALU] |436| 
    2262 0000003f A8A9          MOVL      ACC,XAR4              ; [CPU_ALU] |436| 
    2263 00000040 A0AB          MOVL      P,XAR5                ; [CPU_ALU] |436| 
    2264 00000041 2B42          MOV       *-SP[2],#0            ; [CPU_ALU] |436| 
    2265 00000042 18A9          AND       AL,#65535             ; [CPU_ALU] |436| 
         00000043 FFFF 
    2266 00000044 910F          ANDB      AH,#15                ; [CPU_ALU] |436| 
    2267 00000045 18AB          AND       PL,#65535             ; [CPU_ALU] |436| 
         00000046 FFFF 
    2268 00000047 18AA          AND       PH,#65535             ; [CPU_ALU] |436| 
         00000048 FFFF 
    2269 00000049 2B41          MOV       *-SP[1],#0            ; [CPU_FPU] |436| 
    2270              $C$DW$154       .dwtag  DW_TAG_TI_branch
    2271                      .dwattr $C$DW$154, DW_AT_low_pc(0x00)
    2272                      .dwattr $C$DW$154, DW_AT_name("__c28xabi_cmpull")
    2273                      .dwattr $C$DW$154, DW_AT_TI_call
    2274              
    2275 0000004a 7640!         LCR       #||__c28xabi_cmpull|| ; [CPU_ALU] |436| 
         0000004b 0000 
TMS320C2000 Assembler PC v22.6.0 Tue Dec 20 15:55:14 2022

Copyright (c) 1996-2018 Texas Instruments Incorporated
obc_7_4kw.asm                                                        PAGE   45

    2276                      ; call occurs [#||__c28xabi_cmpull||] ; [] |436| 
    2277 0000004c 5200          CMPB      AL,#0                 ; [CPU_ALU] |436| 
    2278 0000004d 6104          B         ||$C$L13||,EQ         ; [CPU_ALU] |436| 
    2279                      ; branchcc occurs ; [] |436| 
    2280 0000004e 28A9          MOV       AL,#-2                ; [CPU_ALU] |436| 
         0000004f FFFE 
    2281 00000050 6F02          B         ||$C$L14||,UNC        ; [CPU_ALU] |436| 
    2282                      ; branch occurs ; [] |436| 
    2283 00000051       ||$C$L13||:    
    2284 00000051 9A00          MOVB      AL,#0                 ; [CPU_ALU] |436| 
    2285 00000052       ||$C$L14||:    
    2286 00000052 FE84          SUBB      SP,#4                 ; [CPU_ARAU] 
    2287                      .dwcfi  cfa_offset, -2
    2288              $C$DW$155       .dwtag  DW_TAG_TI_branch
    2289                      .dwattr $C$DW$155, DW_AT_low_pc(0x00)
    2290                      .dwattr $C$DW$155, DW_AT_TI_return
    2291              
    2292 00000053 0006          LRETR     ; [CPU_ALU] 
    2293                      ; return occurs ; [] 
    2294                      .dwattr $C$DW$150, DW_AT_TI_end_file("C:/ti/ccs1210/ccs/tools/compiler/ti-cgt-c2000_22.6.0.LTS/includ
    2295                      .dwattr $C$DW$150, DW_AT_TI_end_line(0x1bd)
    2296                      .dwattr $C$DW$150, DW_AT_TI_end_column(0x01)
    2297                      .dwendentry
    2298                      .dwendtag $C$DW$150
    2299              
    2300 00000000               .sect   ".text:__fpclassifyf"
    2301                      .clink
    2302                      .global ||__fpclassifyf||
    2303              
    2304              $C$DW$156       .dwtag  DW_TAG_subprogram
    2305                      .dwattr $C$DW$156, DW_AT_name("__fpclassifyf")
    2306                      .dwattr $C$DW$156, DW_AT_low_pc(||__fpclassifyf||)
    2307                      .dwattr $C$DW$156, DW_AT_high_pc(0x00)
    2308                      .dwattr $C$DW$156, DW_AT_linkage_name("__fpclassifyf")
    2309                      .dwattr $C$DW$156, DW_AT_external
    2310                      .dwattr $C$DW$156, DW_AT_type(*$C$DW$T$10)
    2311                      .dwattr $C$DW$156, DW_AT_decl_file("C:/ti/ccs1210/ccs/tools/compiler/ti-cgt-c2000_22.6.0.LTS/include/
    2312                      .dwattr $C$DW$156, DW_AT_decl_line(0x18c)
    2313                      .dwattr $C$DW$156, DW_AT_decl_column(0x18)
    2314                      .dwattr $C$DW$156, DW_AT_TI_max_frame_size(-2)
    2315                      .dwpsn  file "C:/ti/ccs1210/ccs/tools/compiler/ti-cgt-c2000_22.6.0.LTS/include/_defs.h",line 397,colu
    2316              
    2317                      .dwfde $C$DW$CIE, ||__fpclassifyf||
    2318              $C$DW$157       .dwtag  DW_TAG_formal_parameter
    2319                      .dwattr $C$DW$157, DW_AT_name("f")
    2320                      .dwattr $C$DW$157, DW_AT_type(*$C$DW$T$16)
    2321                      .dwattr $C$DW$157, DW_AT_location[DW_OP_regx 0x2b]
    2322              
    2323              
    2324              ;***************************************************************
    2325              ;* FNAME: __fpclassifyf                 FR SIZE:   0           *
    2326              ;*                                                             *
    2327              ;* FUNCTION ENVIRONMENT                                        *
    2328              ;*                                                             *
    2329              ;* FUNCTION PROPERTIES                                         *
TMS320C2000 Assembler PC v22.6.0 Tue Dec 20 15:55:14 2022

Copyright (c) 1996-2018 Texas Instruments Incorporated
obc_7_4kw.asm                                                        PAGE   46

    2330              ;*                            0 Parameter,  0 Auto,  0 SOE     *
    2331              ;***************************************************************
    2332              
    2333              ||__fpclassifyf||:
    2334              ;* PL    assigned to $O$K1
    2335              ;* R0    assigned to f
    2336              $C$DW$158       .dwtag  DW_TAG_variable
    2337                      .dwattr $C$DW$158, DW_AT_name("f")
    2338                      .dwattr $C$DW$158, DW_AT_type(*$C$DW$T$75)
    2339                      .dwattr $C$DW$158, DW_AT_location[DW_OP_regx 0x2b]
    2340              
    2341                      .dwcfi  cfa_offset, -2
    2342                      .dwcfi  save_reg_to_mem, 26, 0
    2343                      .dwpsn  file "C:/ti/ccs1210/ccs/tools/compiler/ti-cgt-c2000_22.6.0.LTS/include/_defs.h",line 398,colu
    2344 00000000 BFAB          MOV32     P,R0H                 ; [CPU_FPU] |398| 
         00000001 0F12 
    2345                      .dwpsn  file "C:/ti/ccs1210/ccs/tools/compiler/ti-cgt-c2000_22.6.0.LTS/include/_defs.h",line 402,colu
    2346 00000002 CCAA          AND       AL,PH,#0x7f80         ; [CPU_ALU] |402| 
         00000003 7F80 
    2347 00000004 88A9          MOVZ      AR6,AL                ; [CPU_ALU] |402| 
    2348 00000005 FF20          MOV       ACC,#32640            ; [CPU_ALU] |402| 
         00000006 7F80 
    2349 00000007 0FA6          CMPL      ACC,XAR6              ; [CPU_ALU] |402| 
    2350 00000008 6009          B         ||$C$L16||,NEQ        ; [CPU_ALU] |402| 
    2351                      ; branchcc occurs ; [] |402| 
    2352 00000009 A9A9          MOVL      ACC,P                 ; [CPU_ALU] |402| 
    2353 0000000a 917F          ANDB      AH,#127               ; [CPU_ALU] |402| 
    2354 0000000b FF58          TEST      ACC                   ; [CPU_ALU] |402| 
    2355 0000000c 6103          B         ||$C$L15||,EQ         ; [CPU_ALU] |402| 
    2356                      ; branchcc occurs ; [] |402| 
    2357                      .dwcfi  remember_state
    2358 0000000d 9A02          MOVB      AL,#2                 ; [CPU_ALU] |402| 
    2359              $C$DW$159       .dwtag  DW_TAG_TI_branch
    2360                      .dwattr $C$DW$159, DW_AT_low_pc(0x00)
    2361                      .dwattr $C$DW$159, DW_AT_TI_return
    2362              
    2363 0000000e 0006          LRETR     ; [CPU_ALU] 
    2364                      ; return occurs ; [] 
    2365                      .dwcfi  restore_state
    2366 0000000f       ||$C$L15||:    
    2367                      .dwcfi  remember_state
    2368 0000000f 9A01          MOVB      AL,#1                 ; [CPU_ALU] |402| 
    2369              $C$DW$160       .dwtag  DW_TAG_TI_branch
    2370                      .dwattr $C$DW$160, DW_AT_low_pc(0x00)
    2371                      .dwattr $C$DW$160, DW_AT_TI_return
    2372              
    2373 00000010 0006          LRETR     ; [CPU_ALU] 
    2374                      ; return occurs ; [] 
    2375                      .dwcfi  restore_state
    2376 00000011       ||$C$L16||:    
    2377 00000011 A9A9          MOVL      ACC,P                 ; [CPU_ALU] |402| 
    2378 00000012 28AC          MOV       T,#23                 ; [CPU_ALU] |402| 
         00000013 0017 
    2379 00000014 5622          LSRL      ACC,T                 ; [CPU_ALU] |402| 
    2380 00000015 90FF          ANDB      AL,#0xff              ; [CPU_ALU] |402| 
TMS320C2000 Assembler PC v22.6.0 Tue Dec 20 15:55:14 2022

Copyright (c) 1996-2018 Texas Instruments Incorporated
obc_7_4kw.asm                                                        PAGE   47

    2381 00000016 6104          B         ||$C$L17||,EQ         ; [CPU_ALU] |402| 
    2382                      ; branchcc occurs ; [] |402| 
    2383                      .dwcfi  remember_state
    2384 00000017 28A9          MOV       AL,#-1                ; [CPU_ALU] |402| 
         00000018 FFFF 
    2385              $C$DW$161       .dwtag  DW_TAG_TI_branch
    2386                      .dwattr $C$DW$161, DW_AT_low_pc(0x00)
    2387                      .dwattr $C$DW$161, DW_AT_TI_return
    2388              
    2389 00000019 0006          LRETR     ; [CPU_ALU] 
    2390                      ; return occurs ; [] 
    2391                      .dwcfi  restore_state
    2392 0000001a       ||$C$L17||:    
    2393 0000001a A9A9          MOVL      ACC,P                 ; [CPU_ALU] |402| 
    2394 0000001b 917F          ANDB      AH,#127               ; [CPU_ALU] |402| 
    2395 0000001c FF58          TEST      ACC                   ; [CPU_ALU] |402| 
    2396 0000001d 6104          B         ||$C$L18||,EQ         ; [CPU_ALU] |402| 
    2397                      ; branchcc occurs ; [] |402| 
    2398                      .dwcfi  remember_state
    2399 0000001e 28A9          MOV       AL,#-2                ; [CPU_ALU] |402| 
         0000001f FFFE 
    2400              $C$DW$162       .dwtag  DW_TAG_TI_branch
    2401                      .dwattr $C$DW$162, DW_AT_low_pc(0x00)
    2402                      .dwattr $C$DW$162, DW_AT_TI_return
    2403              
    2404 00000020 0006          LRETR     ; [CPU_ALU] 
    2405                      ; return occurs ; [] 
    2406                      .dwcfi  restore_state
    2407 00000021       ||$C$L18||:    
    2408 00000021 9A00          MOVB      AL,#0                 ; [CPU_ALU] |402| 
    2409              $C$DW$163       .dwtag  DW_TAG_TI_branch
    2410                      .dwattr $C$DW$163, DW_AT_low_pc(0x00)
    2411                      .dwattr $C$DW$163, DW_AT_TI_return
    2412              
    2413 00000022 0006          LRETR     ; [CPU_ALU] 
    2414                      ; return occurs ; [] 
    2415                      .dwattr $C$DW$156, DW_AT_TI_end_file("C:/ti/ccs1210/ccs/tools/compiler/ti-cgt-c2000_22.6.0.LTS/includ
    2416                      .dwattr $C$DW$156, DW_AT_TI_end_line(0x19b)
    2417                      .dwattr $C$DW$156, DW_AT_TI_end_column(0x01)
    2418                      .dwendentry
    2419                      .dwendtag $C$DW$156
    2420              
    2421 00000000               .sect   ".text:__fpclassify"
    2422                      .clink
    2423                      .global ||__fpclassify||
    2424              
    2425              $C$DW$164       .dwtag  DW_TAG_subprogram
    2426                      .dwattr $C$DW$164, DW_AT_name("__fpclassify")
    2427                      .dwattr $C$DW$164, DW_AT_low_pc(||__fpclassify||)
    2428                      .dwattr $C$DW$164, DW_AT_high_pc(0x00)
    2429                      .dwattr $C$DW$164, DW_AT_linkage_name("__fpclassify")
    2430                      .dwattr $C$DW$164, DW_AT_external
    2431                      .dwattr $C$DW$164, DW_AT_type(*$C$DW$T$10)
    2432                      .dwattr $C$DW$164, DW_AT_decl_file("C:/ti/ccs1210/ccs/tools/compiler/ti-cgt-c2000_22.6.0.LTS/include/
    2433                      .dwattr $C$DW$164, DW_AT_decl_line(0x19d)
TMS320C2000 Assembler PC v22.6.0 Tue Dec 20 15:55:14 2022

Copyright (c) 1996-2018 Texas Instruments Incorporated
obc_7_4kw.asm                                                        PAGE   48

    2434                      .dwattr $C$DW$164, DW_AT_decl_column(0x18)
    2435                      .dwattr $C$DW$164, DW_AT_TI_max_frame_size(-6)
    2436                      .dwpsn  file "C:/ti/ccs1210/ccs/tools/compiler/ti-cgt-c2000_22.6.0.LTS/include/_defs.h",line 414,colu
    2437              
    2438                      .dwfde $C$DW$CIE, ||__fpclassify||
    2439              $C$DW$165       .dwtag  DW_TAG_formal_parameter
    2440                      .dwattr $C$DW$165, DW_AT_name("d")
    2441                      .dwattr $C$DW$165, DW_AT_type(*$C$DW$T$17)
    2442                      .dwattr $C$DW$165, DW_AT_location[DW_OP_regx 0x29]
    2443              
    2444              
    2445              ;***************************************************************
    2446              ;* FNAME: __fpclassify                  FR SIZE:   4           *
    2447              ;*                                                             *
    2448              ;* FUNCTION ENVIRONMENT                                        *
    2449              ;*                                                             *
    2450              ;* FUNCTION PROPERTIES                                         *
    2451              ;*                            4 Parameter,  0 Auto,  0 SOE     *
    2452              ;***************************************************************
    2453              
    2454 00000000       ||__fpclassify||:
    2455              ;* AR5   assigned to $O$K1
    2456                      .dwcfi  cfa_offset, -2
    2457                      .dwcfi  save_reg_to_mem, 26, 0
    2458 00000000 FE04          ADDB      SP,#4                 ; [CPU_ARAU] 
    2459                      .dwcfi  cfa_offset, -6
    2460                      .dwpsn  file "C:/ti/ccs1210/ccs/tools/compiler/ti-cgt-c2000_22.6.0.LTS/include/_defs.h",line 415,colu
    2461 00000001 BFA6          MOV32     XAR6,R0L              ; [CPU_FPU] |415| 
         00000002 0F10 
    2462 00000003 BFA7          MOV32     XAR7,R0H              ; [CPU_FPU] |415| 
         00000004 0F12 
    2463                      .dwpsn  file "C:/ti/ccs1210/ccs/tools/compiler/ti-cgt-c2000_22.6.0.LTS/include/_defs.h",line 419,colu
    2464 00000005 28AC          MOV       T,#48                 ; [CPU_ALU] |419| 
         00000006 0030 
    2465                      .dwpsn  file "C:/ti/ccs1210/ccs/tools/compiler/ti-cgt-c2000_22.6.0.LTS/include/_defs.h",line 415,colu
    2466 00000007 A3A6          MOVL      P,XAR6                ; [CPU_ALU] |415| 
    2467 00000008 83A6          MOVL      XAR5,XAR6             ; [CPU_ALU] |415| 
    2468 00000009 06A7          MOVL      ACC,XAR7              ; [CPU_ALU] |415| 
    2469                      .dwpsn  file "C:/ti/ccs1210/ccs/tools/compiler/ti-cgt-c2000_22.6.0.LTS/include/_defs.h",line 419,colu
    2470 0000000a 565B          LSR64     ACC:P,T               ; [CPU_ALU] |419| 
    2471 0000000b 18AB          AND       PL,#0x7ff0            ; [CPU_ALU] |419| 
         0000000c 7FF0 
    2472 0000000d 88AB          MOVZ      AR6,PL                ; [CPU_ALU] |419| 
    2473 0000000e FF20          MOV       ACC,#32752            ; [CPU_ALU] |419| 
         0000000f 7FF0 
    2474                      .dwpsn  file "C:/ti/ccs1210/ccs/tools/compiler/ti-cgt-c2000_22.6.0.LTS/include/_defs.h",line 415,colu
    2475 00000010 8AA7          MOVL      XAR4,XAR7             ; [CPU_ALU] |415| 
    2476                      .dwpsn  file "C:/ti/ccs1210/ccs/tools/compiler/ti-cgt-c2000_22.6.0.LTS/include/_defs.h",line 419,colu
    2477 00000011 0FA6          CMPL      ACC,XAR6              ; [CPU_ALU] |419| 
    2478 00000012 6016          B         ||$C$L20||,NEQ        ; [CPU_ALU] |419| 
    2479                      ; branchcc occurs ; [] |419| 
    2480 00000013 A8A9          MOVL      ACC,XAR4              ; [CPU_ALU] |419| 
    2481 00000014 A0AB          MOVL      P,XAR5                ; [CPU_ALU] |419| 
    2482 00000015 BE00          MOVB      XAR6,#0               ; [CPU_ALU] |419| 
    2483 00000016 18A9          AND       AL,#65535             ; [CPU_ALU] |419| 
TMS320C2000 Assembler PC v22.6.0 Tue Dec 20 15:55:14 2022

Copyright (c) 1996-2018 Texas Instruments Incorporated
obc_7_4kw.asm                                                        PAGE   49

         00000017 FFFF 
    2484 00000018 910F          ANDB      AH,#15                ; [CPU_ALU] |419| 
    2485 00000019 18AB          AND       PL,#65535             ; [CPU_ALU] |419| 
         0000001a FFFF 
    2486 0000001b 18AA          AND       PH,#65535             ; [CPU_ALU] |419| 
         0000001c FFFF 
    2487 0000001d C244          MOVL      *-SP[4],XAR6          ; [CPU_FPU] |419| 
    2488 0000001e 2B42          MOV       *-SP[2],#0            ; [CPU_FPU] |419| 
    2489 0000001f 2B41          MOV       *-SP[1],#0            ; [CPU_FPU] |419| 
    2490              $C$DW$166       .dwtag  DW_TAG_TI_branch
    2491                      .dwattr $C$DW$166, DW_AT_low_pc(0x00)
    2492                      .dwattr $C$DW$166, DW_AT_name("__c28xabi_cmpull")
    2493                      .dwattr $C$DW$166, DW_AT_TI_call
    2494              
    2495 00000020 7640!         LCR       #||__c28xabi_cmpull|| ; [CPU_ALU] |419| 
         00000021 0000 
    2496                      ; call occurs [#||__c28xabi_cmpull||] ; [] |419| 
    2497 00000022 5200          CMPB      AL,#0                 ; [CPU_ALU] |419| 
    2498 00000023 6103          B         ||$C$L19||,EQ         ; [CPU_ALU] |419| 
    2499                      ; branchcc occurs ; [] |419| 
    2500 00000024 9A02          MOVB      AL,#2                 ; [CPU_ALU] |419| 
    2501 00000025 6F2D          B         ||$C$L23||,UNC        ; [CPU_ALU] |419| 
    2502                      ; branch occurs ; [] |419| 
    2503 00000026       ||$C$L19||:    
    2504 00000026 9A01          MOVB      AL,#1                 ; [CPU_ALU] |419| 
    2505 00000027 6F2B          B         ||$C$L23||,UNC        ; [CPU_ALU] |419| 
    2506                      ; branch occurs ; [] |419| 
    2507 00000028       ||$C$L20||:    
    2508 00000028 BE00          MOVB      XAR6,#0               ; [CPU_ALU] |419| 
    2509 00000029 A0AB          MOVL      P,XAR5                ; [CPU_ALU] |419| 
    2510 0000002a A8A9          MOVL      ACC,XAR4              ; [CPU_ALU] |419| 
    2511 0000002b 28AC          MOV       T,#52                 ; [CPU_ALU] |419| 
         0000002c 0034 
    2512 0000002d C244          MOVL      *-SP[4],XAR6          ; [CPU_ALU] |419| 
    2513 0000002e 2B42          MOV       *-SP[2],#0            ; [CPU_ALU] |419| 
    2514 0000002f 565B          LSR64     ACC:P,T               ; [CPU_ALU] |419| 
    2515 00000030 2B41          MOV       *-SP[1],#0            ; [CPU_FPU] |419| 
    2516 00000031 9000          ANDB      AL,#0                 ; [CPU_ALU] |419| 
    2517 00000032 9100          ANDB      AH,#0                 ; [CPU_ALU] |419| 
    2518 00000033 18AB          AND       PL,#2047              ; [CPU_ALU] |419| 
         00000034 07FF 
    2519 00000035 18AA          AND       PH,#0                 ; [CPU_ALU] |419| 
         00000036 0000 
    2520              $C$DW$167       .dwtag  DW_TAG_TI_branch
    2521                      .dwattr $C$DW$167, DW_AT_low_pc(0x00)
    2522                      .dwattr $C$DW$167, DW_AT_name("__c28xabi_cmpull")
    2523                      .dwattr $C$DW$167, DW_AT_TI_call
    2524              
    2525 00000037 7640!         LCR       #||__c28xabi_cmpull|| ; [CPU_ALU] |419| 
         00000038 0000 
    2526                      ; call occurs [#||__c28xabi_cmpull||] ; [] |419| 
    2527 00000039 5200          CMPB      AL,#0                 ; [CPU_ALU] |419| 
    2528 0000003a 6104          B         ||$C$L21||,EQ         ; [CPU_ALU] |419| 
    2529                      ; branchcc occurs ; [] |419| 
    2530 0000003b 28A9          MOV       AL,#-1                ; [CPU_ALU] |419| 
TMS320C2000 Assembler PC v22.6.0 Tue Dec 20 15:55:14 2022

Copyright (c) 1996-2018 Texas Instruments Incorporated
obc_7_4kw.asm                                                        PAGE   50

         0000003c FFFF 
    2531 0000003d 6F15          B         ||$C$L23||,UNC        ; [CPU_ALU] |419| 
    2532                      ; branch occurs ; [] |419| 
    2533 0000003e       ||$C$L21||:    
    2534 0000003e C244          MOVL      *-SP[4],XAR6          ; [CPU_ALU] |419| 
    2535 0000003f A8A9          MOVL      ACC,XAR4              ; [CPU_ALU] |419| 
    2536 00000040 A0AB          MOVL      P,XAR5                ; [CPU_ALU] |419| 
    2537 00000041 2B42          MOV       *-SP[2],#0            ; [CPU_ALU] |419| 
    2538 00000042 18A9          AND       AL,#65535             ; [CPU_ALU] |419| 
         00000043 FFFF 
    2539 00000044 910F          ANDB      AH,#15                ; [CPU_ALU] |419| 
    2540 00000045 18AB          AND       PL,#65535             ; [CPU_ALU] |419| 
         00000046 FFFF 
    2541 00000047 18AA          AND       PH,#65535             ; [CPU_ALU] |419| 
         00000048 FFFF 
    2542 00000049 2B41          MOV       *-SP[1],#0            ; [CPU_FPU] |419| 
    2543              $C$DW$168       .dwtag  DW_TAG_TI_branch
    2544                      .dwattr $C$DW$168, DW_AT_low_pc(0x00)
    2545                      .dwattr $C$DW$168, DW_AT_name("__c28xabi_cmpull")
    2546                      .dwattr $C$DW$168, DW_AT_TI_call
    2547              
    2548 0000004a 7640!         LCR       #||__c28xabi_cmpull|| ; [CPU_ALU] |419| 
         0000004b 0000 
    2549                      ; call occurs [#||__c28xabi_cmpull||] ; [] |419| 
    2550 0000004c 5200          CMPB      AL,#0                 ; [CPU_ALU] |419| 
    2551 0000004d 6104          B         ||$C$L22||,EQ         ; [CPU_ALU] |419| 
    2552                      ; branchcc occurs ; [] |419| 
    2553 0000004e 28A9          MOV       AL,#-2                ; [CPU_ALU] |419| 
         0000004f FFFE 
    2554 00000050 6F02          B         ||$C$L23||,UNC        ; [CPU_ALU] |419| 
    2555                      ; branch occurs ; [] |419| 
    2556 00000051       ||$C$L22||:    
    2557 00000051 9A00          MOVB      AL,#0                 ; [CPU_ALU] |419| 
    2558 00000052       ||$C$L23||:    
    2559 00000052 FE84          SUBB      SP,#4                 ; [CPU_ARAU] 
    2560                      .dwcfi  cfa_offset, -2
    2561              $C$DW$169       .dwtag  DW_TAG_TI_branch
    2562                      .dwattr $C$DW$169, DW_AT_low_pc(0x00)
    2563                      .dwattr $C$DW$169, DW_AT_TI_return
    2564              
    2565 00000053 0006          LRETR     ; [CPU_ALU] 
    2566                      ; return occurs ; [] 
    2567                      .dwattr $C$DW$164, DW_AT_TI_end_file("C:/ti/ccs1210/ccs/tools/compiler/ti-cgt-c2000_22.6.0.LTS/includ
    2568                      .dwattr $C$DW$164, DW_AT_TI_end_line(0x1ac)
    2569                      .dwattr $C$DW$164, DW_AT_TI_end_column(0x01)
    2570                      .dwendentry
    2571                      .dwendtag $C$DW$164
    2572              
    2573 00000000               .sect   ".text:OBC_7_4KW_setupSFRA"
    2574                      .clink
    2575                      .global ||OBC_7_4KW_setupSFRA||
    2576              
    2577              $C$DW$170       .dwtag  DW_TAG_subprogram
    2578                      .dwattr $C$DW$170, DW_AT_name("OBC_7_4KW_setupSFRA")
    2579                      .dwattr $C$DW$170, DW_AT_low_pc(||OBC_7_4KW_setupSFRA||)
TMS320C2000 Assembler PC v22.6.0 Tue Dec 20 15:55:14 2022

Copyright (c) 1996-2018 Texas Instruments Incorporated
obc_7_4kw.asm                                                        PAGE   51

    2580                      .dwattr $C$DW$170, DW_AT_high_pc(0x00)
    2581                      .dwattr $C$DW$170, DW_AT_linkage_name("OBC_7_4KW_setupSFRA")
    2582                      .dwattr $C$DW$170, DW_AT_external
    2583                      .dwattr $C$DW$170, DW_AT_decl_file("../obc_7_4kw.c")
    2584                      .dwattr $C$DW$170, DW_AT_decl_line(0x113)
    2585                      .dwattr $C$DW$170, DW_AT_decl_column(0x06)
    2586                      .dwattr $C$DW$170, DW_AT_TI_max_frame_size(-2)
    2587                      .dwpsn  file "../obc_7_4kw.c",line 276,column 1,is_stmt,address ||OBC_7_4KW_setupSFRA||,isa 0
    2588              
    2589                      .dwfde $C$DW$CIE, ||OBC_7_4KW_setupSFRA||
    2590              
    2591              ;***************************************************************
    2592              ;* FNAME: OBC_7_4KW_setupSFRA           FR SIZE:   0           *
    2593              ;*                                                             *
    2594              ;* FUNCTION ENVIRONMENT                                        *
    2595              ;*                                                             *
    2596              ;* FUNCTION PROPERTIES                                         *
    2597              ;*                            0 Parameter,  0 Auto,  0 SOE     *
    2598              ;***************************************************************
    2599              
    2600 00000000       ||OBC_7_4KW_setupSFRA||:
    2601                      .dwcfi  cfa_offset, -2
    2602                      .dwcfi  save_reg_to_mem, 26, 0
    2603                      .dwpsn  file "../obc_7_4kw.c",line 289,column 5,is_stmt,isa 0
    2604              $C$DW$171       .dwtag  DW_TAG_TI_branch
    2605                      .dwattr $C$DW$171, DW_AT_low_pc(0x00)
    2606                      .dwattr $C$DW$171, DW_AT_name("TTPLPFC_setupSFRA")
    2607                      .dwattr $C$DW$171, DW_AT_TI_call
    2608              
    2609 00000000 7640!         LCR       #||TTPLPFC_setupSFRA|| ; [CPU_ALU] |289| 
         00000001 0000 
    2610                      ; call occurs [#||TTPLPFC_setupSFRA||] ; [] |289| 
    2611              $C$DW$172       .dwtag  DW_TAG_TI_branch
    2612                      .dwattr $C$DW$172, DW_AT_low_pc(0x00)
    2613                      .dwattr $C$DW$172, DW_AT_TI_return
    2614              
    2615 00000002 0006          LRETR     ; [CPU_ALU] 
    2616                      ; return occurs ; [] 
    2617                      .dwattr $C$DW$170, DW_AT_TI_end_file("../obc_7_4kw.c")
    2618                      .dwattr $C$DW$170, DW_AT_TI_end_line(0x12b)
    2619                      .dwattr $C$DW$170, DW_AT_TI_end_column(0x01)
    2620                      .dwendentry
    2621                      .dwendtag $C$DW$170
    2622              
    2623 00000000               .sect   ".text:OBC_7_4KW_setupProfiling"
    2624                      .clink
    2625                      .global ||OBC_7_4KW_setupProfiling||
    2626              
    2627              $C$DW$173       .dwtag  DW_TAG_subprogram
    2628                      .dwattr $C$DW$173, DW_AT_name("OBC_7_4KW_setupProfiling")
    2629                      .dwattr $C$DW$173, DW_AT_low_pc(||OBC_7_4KW_setupProfiling||)
    2630                      .dwattr $C$DW$173, DW_AT_high_pc(0x00)
    2631                      .dwattr $C$DW$173, DW_AT_linkage_name("OBC_7_4KW_setupProfiling")
    2632                      .dwattr $C$DW$173, DW_AT_external
    2633                      .dwattr $C$DW$173, DW_AT_decl_file("../obc_7_4kw.c")
TMS320C2000 Assembler PC v22.6.0 Tue Dec 20 15:55:14 2022

Copyright (c) 1996-2018 Texas Instruments Incorporated
obc_7_4kw.asm                                                        PAGE   52

    2634                      .dwattr $C$DW$173, DW_AT_decl_line(0xd1)
    2635                      .dwattr $C$DW$173, DW_AT_decl_column(0x06)
    2636                      .dwattr $C$DW$173, DW_AT_TI_max_frame_size(-2)
    2637                      .dwpsn  file "../obc_7_4kw.c",line 210,column 1,is_stmt,address ||OBC_7_4KW_setupProfiling||,isa 0
    2638              
    2639                      .dwfde $C$DW$CIE, ||OBC_7_4KW_setupProfiling||
    2640              
    2641              ;***************************************************************
    2642              ;* FNAME: OBC_7_4KW_setupProfiling      FR SIZE:   0           *
    2643              ;*                                                             *
    2644              ;* FUNCTION ENVIRONMENT                                        *
    2645              ;*                                                             *
    2646              ;* FUNCTION PROPERTIES                                         *
    2647              ;*                            0 Parameter,  0 Auto,  0 SOE     *
    2648              ;***************************************************************
    2649              
    2650 00000000       ||OBC_7_4KW_setupProfiling||:
    2651                      .dwcfi  cfa_offset, -2
    2652                      .dwcfi  save_reg_to_mem, 26, 0
    2653                      .dwpsn  file "../obc_7_4kw.c",line 215,column 5,is_stmt,isa 0
    2654              $C$DW$174       .dwtag  DW_TAG_TI_branch
    2655                      .dwattr $C$DW$174, DW_AT_low_pc(0x00)
    2656                      .dwattr $C$DW$174, DW_AT_name("CLLLC_HAL_setupECAPforProfilingCode")
    2657                      .dwattr $C$DW$174, DW_AT_TI_call
    2658              
    2659 00000000 7640!         LCR       #||CLLLC_HAL_setupECAPforProfilingCode|| ; [CPU_ALU] |215| 
         00000001 0000 
    2660                      ; call occurs [#||CLLLC_HAL_setupECAPforProfilingCode||] ; [] |215| 
    2661              $C$DW$175       .dwtag  DW_TAG_TI_branch
    2662                      .dwattr $C$DW$175, DW_AT_low_pc(0x00)
    2663                      .dwattr $C$DW$175, DW_AT_TI_return
    2664              
    2665 00000002 0006          LRETR     ; [CPU_ALU] 
    2666                      ; return occurs ; [] 
    2667                      .dwattr $C$DW$173, DW_AT_TI_end_file("../obc_7_4kw.c")
    2668                      .dwattr $C$DW$173, DW_AT_TI_end_line(0xdd)
    2669                      .dwattr $C$DW$173, DW_AT_TI_end_column(0x01)
    2670                      .dwendentry
    2671                      .dwendtag $C$DW$173
    2672              
    2673 00000000               .sect   ".text:OBC_7_4KW_setupPWM"
    2674                      .clink
    2675                      .global ||OBC_7_4KW_setupPWM||
    2676              
    2677              $C$DW$176       .dwtag  DW_TAG_subprogram
    2678                      .dwattr $C$DW$176, DW_AT_name("OBC_7_4KW_setupPWM")
    2679                      .dwattr $C$DW$176, DW_AT_low_pc(||OBC_7_4KW_setupPWM||)
    2680                      .dwattr $C$DW$176, DW_AT_high_pc(0x00)
    2681                      .dwattr $C$DW$176, DW_AT_linkage_name("OBC_7_4KW_setupPWM")
    2682                      .dwattr $C$DW$176, DW_AT_external
    2683                      .dwattr $C$DW$176, DW_AT_decl_file("../obc_7_4kw.c")
    2684                      .dwattr $C$DW$176, DW_AT_decl_line(0x7f)
    2685                      .dwattr $C$DW$176, DW_AT_decl_column(0x06)
    2686                      .dwattr $C$DW$176, DW_AT_TI_max_frame_size(-2)
    2687                      .dwpsn  file "../obc_7_4kw.c",line 128,column 1,is_stmt,address ||OBC_7_4KW_setupPWM||,isa 0
TMS320C2000 Assembler PC v22.6.0 Tue Dec 20 15:55:14 2022

Copyright (c) 1996-2018 Texas Instruments Incorporated
obc_7_4kw.asm                                                        PAGE   53

    2688              
    2689                      .dwfde $C$DW$CIE, ||OBC_7_4KW_setupPWM||
    2690              
    2691              ;***************************************************************
    2692              ;* FNAME: OBC_7_4KW_setupPWM            FR SIZE:   0           *
    2693              ;*                                                             *
    2694              ;* FUNCTION ENVIRONMENT                                        *
    2695              ;*                                                             *
    2696              ;* FUNCTION PROPERTIES                                         *
    2697              ;*                            0 Parameter,  0 Auto,  0 SOE     *
    2698              ;***************************************************************
    2699              
    2700 00000000       ||OBC_7_4KW_setupPWM||:
    2701                      .dwcfi  cfa_offset, -2
    2702                      .dwcfi  save_reg_to_mem, 26, 0
    2703                      .dwpsn  file "../obc_7_4kw.c",line 130,column 5,is_stmt,isa 0
    2704 00000000 28A9          MOV       AL,#1000              ; [CPU_ALU] |130| 
         00000001 03E8 
    2705 00000002 D40C          MOVB      XAR4,#12              ; [CPU_ALU] |130| 
    2706 00000003 9B0C          MOVB      AH,#12                ; [CPU_ALU] |130| 
    2707              $C$DW$177       .dwtag  DW_TAG_TI_branch
    2708                      .dwattr $C$DW$177, DW_AT_low_pc(0x00)
    2709                      .dwattr $C$DW$177, DW_AT_name("TTPLPFC_HAL_setupPWM")
    2710                      .dwattr $C$DW$177, DW_AT_TI_call
    2711              
    2712 00000004 7640!         LCR       #||TTPLPFC_HAL_setupPWM|| ; [CPU_ALU] |130| 
         00000005 0000 
    2713                      ; call occurs [#||TTPLPFC_HAL_setupPWM||] ; [] |130| 
    2714                      .dwpsn  file "../obc_7_4kw.c",line 137,column 5,is_stmt,isa 0
    2715              $C$DW$178       .dwtag  DW_TAG_TI_branch
    2716                      .dwattr $C$DW$178, DW_AT_low_pc(0x00)
    2717                      .dwattr $C$DW$178, DW_AT_name("TTPLPFC_HAL_setPinsAsPWM")
    2718                      .dwattr $C$DW$178, DW_AT_TI_call
    2719              
    2720 00000006 7640!         LCR       #||TTPLPFC_HAL_setPinsAsPWM|| ; [CPU_ALU] |137| 
         00000007 0000 
    2721                      ; call occurs [#||TTPLPFC_HAL_setPinsAsPWM||] ; [] |137| 
    2722 00000008 761F!         MOVW      DP,#||CLLLC_powerFlowStateActive|| ; [CPU_ARAU] 
         00000009 0000 
    2723                      .dwpsn  file "../obc_7_4kw.c",line 143,column 5,is_stmt,isa 0
    2724 0000000a 9200!         MOV       AL,@||CLLLC_powerFlowStateActive|| ; [CPU_ALU] |143| 
    2725              $C$DW$179       .dwtag  DW_TAG_TI_branch
    2726                      .dwattr $C$DW$179, DW_AT_low_pc(0x00)
    2727                      .dwattr $C$DW$179, DW_AT_name("CLLLC_HAL_setupPWM")
    2728                      .dwattr $C$DW$179, DW_AT_TI_call
    2729              
    2730 0000000b 7640!         LCR       #||CLLLC_HAL_setupPWM|| ; [CPU_ALU] |143| 
         0000000c 0000 
    2731                      ; call occurs [#||CLLLC_HAL_setupPWM||] ; [] |143| 
    2732                      .dwpsn  file "../obc_7_4kw.c",line 145,column 5,is_stmt,isa 0
    2733 0000000d 7622          EALLOW    ; [CPU_ALU] |145| 
    2734                      .dwpsn  file "../obc_7_4kw.c",line 150,column 5,is_stmt,isa 0
    2735 0000000e 9BA1          MOVB      AH,#161               ; [CPU_ALU] |150| 
    2736                      .dwpsn  file "../obc_7_4kw.c",line 151,column 5,is_stmt,isa 0
    2737 0000000f 9AA7          MOVB      AL,#167               ; [CPU_ALU] |151| 
TMS320C2000 Assembler PC v22.6.0 Tue Dec 20 15:55:14 2022

Copyright (c) 1996-2018 Texas Instruments Incorporated
obc_7_4kw.asm                                                        PAGE   54

    2738                      .dwpsn  file "../obc_7_4kw.c",line 150,column 5,is_stmt,isa 0
    2739 00000010 F4A8          MOV       *(0:0x4034),AH        ; [CPU_ALU] |150| 
         00000011 4034 
    2740                      .dwpsn  file "../obc_7_4kw.c",line 151,column 5,is_stmt,isa 0
    2741 00000012 F4A9          MOV       *(0:0x4134),AL        ; [CPU_ALU] |151| 
         00000013 4134 
    2742                      .dwpsn  file "../obc_7_4kw.c",line 156,column 5,is_stmt,isa 0
    2743 00000014 BFA9          MOV32     ACC,*(0:0x4138)       ; [CPU_FPU] |156| 
         00000015 4138 
    2744 00000016 18A8          AND       AH,#4095              ; [CPU_ALU] |156| 
         00000017 0FFF 
    2745 00000018 BDA9          MOV32     *(0:0x4138),ACC       ; [CPU_FPU] |156| 
         00000019 4138 
    2746                      .dwpsn  file "../obc_7_4kw.c",line 158,column 5,is_stmt,isa 0
    2747 0000001a 761A          EDIS      ; [CPU_ALU] |158| 
    2748                      .dwpsn  file "../obc_7_4kw.c",line 163,column 5,is_stmt,isa 0
    2749 0000001b 9A03          MOVB      AL,#3                 ; [CPU_ALU] |163| 
    2750              $C$DW$180       .dwtag  DW_TAG_TI_branch
    2751                      .dwattr $C$DW$180, DW_AT_low_pc(0x00)
    2752                      .dwattr $C$DW$180, DW_AT_name("CLLLC_HAL_setupPWMpins")
    2753                      .dwattr $C$DW$180, DW_AT_TI_call
    2754              
    2755 0000001c 7640!         LCR       #||CLLLC_HAL_setupPWMpins|| ; [CPU_ALU] |163| 
         0000001d 0000 
    2756                      ; call occurs [#||CLLLC_HAL_setupPWMpins||] ; [] |163| 
    2757              $C$DW$181       .dwtag  DW_TAG_TI_branch
    2758                      .dwattr $C$DW$181, DW_AT_low_pc(0x00)
    2759                      .dwattr $C$DW$181, DW_AT_TI_return
    2760              
    2761 0000001e 0006          LRETR     ; [CPU_ALU] 
    2762                      ; return occurs ; [] 
    2763                      .dwattr $C$DW$176, DW_AT_TI_end_file("../obc_7_4kw.c")
    2764                      .dwattr $C$DW$176, DW_AT_TI_end_line(0xa5)
    2765                      .dwattr $C$DW$176, DW_AT_TI_end_column(0x01)
    2766                      .dwendentry
    2767                      .dwendtag $C$DW$176
    2768              
    2769 00000000               .sect   ".text:OBC_7_4KW_setupInterrupt"
    2770                      .clink
    2771                      .global ||OBC_7_4KW_setupInterrupt||
    2772              
    2773              $C$DW$182       .dwtag  DW_TAG_subprogram
    2774                      .dwattr $C$DW$182, DW_AT_name("OBC_7_4KW_setupInterrupt")
    2775                      .dwattr $C$DW$182, DW_AT_low_pc(||OBC_7_4KW_setupInterrupt||)
    2776                      .dwattr $C$DW$182, DW_AT_high_pc(0x00)
    2777                      .dwattr $C$DW$182, DW_AT_linkage_name("OBC_7_4KW_setupInterrupt")
    2778                      .dwattr $C$DW$182, DW_AT_external
    2779                      .dwattr $C$DW$182, DW_AT_decl_file("../obc_7_4kw.c")
    2780                      .dwattr $C$DW$182, DW_AT_decl_line(0xf8)
    2781                      .dwattr $C$DW$182, DW_AT_decl_column(0x06)
    2782                      .dwattr $C$DW$182, DW_AT_TI_max_frame_size(-4)
    2783                      .dwpsn  file "../obc_7_4kw.c",line 249,column 1,is_stmt,address ||OBC_7_4KW_setupInterrupt||,isa 0
    2784              
    2785                      .dwfde $C$DW$CIE, ||OBC_7_4KW_setupInterrupt||
    2786              
TMS320C2000 Assembler PC v22.6.0 Tue Dec 20 15:55:14 2022

Copyright (c) 1996-2018 Texas Instruments Incorporated
obc_7_4kw.asm                                                        PAGE   55

    2787              ;***************************************************************
    2788              ;* FNAME: OBC_7_4KW_setupInterrupt      FR SIZE:   2           *
    2789              ;*                                                             *
    2790              ;* FUNCTION ENVIRONMENT                                        *
    2791              ;*                                                             *
    2792              ;* FUNCTION PROPERTIES                                         *
    2793              ;*                            0 Parameter,  0 Auto,  2 SOE     *
    2794              ;***************************************************************
    2795              
    2796              ||OBC_7_4KW_setupInterrupt||:
    2797              ;* AR1   assigned to powerFlow
    2798              $C$DW$183       .dwtag  DW_TAG_variable
    2799                      .dwattr $C$DW$183, DW_AT_name("powerFlow")
    2800                      .dwattr $C$DW$183, DW_AT_type(*$C$DW$T$48)
    2801                      .dwattr $C$DW$183, DW_AT_location[DW_OP_reg6]
    2802              
    2803              ;* AL    assigned to tcrValue
    2804              $C$DW$184       .dwtag  DW_TAG_variable
    2805                      .dwattr $C$DW$184, DW_AT_name("tcrValue")
    2806                      .dwattr $C$DW$184, DW_AT_type(*$C$DW$T$48)
    2807                      .dwattr $C$DW$184, DW_AT_location[DW_OP_reg0]
    2808              
    2809                      .dwcfi  cfa_offset, -2
    2810                      .dwcfi  save_reg_to_mem, 26, 0
    2811                      .dwpsn  file "../obc_7_4kw.c",line 260,column 5,is_stmt,isa 0
    2812 00000000 E802          MOVIZ     R0H,#18410            ; [CPU_FPU] |260| 
         00000001 3F50 
    2813 00000002 E802          MOVIZ     R1H,#19684            ; [CPU_FPU] |260| 
         00000003 6721 
    2814 00000004 B2BD          MOVL      *SP++,XAR1            ; [CPU_ALU] 
    2815                      .dwcfi  save_reg_to_mem, 7, 2
    2816                      .dwcfi  cfa_offset, -4
    2817 00000005 FF20          MOV       ACC,#17408            ; [CPU_ALU] |260| 
         00000006 4400 
    2818 00000007 E80B          MOVXI     R0H,#24576            ; [CPU_FPU] |260| 
         00000008 0000 
    2819 00000009 E80F          MOVXI     R1H,#57792            ; [CPU_FPU] |260| 
         0000000a 0E01 
    2820              $C$DW$185       .dwtag  DW_TAG_TI_branch
    2821                      .dwattr $C$DW$185, DW_AT_low_pc(0x00)
    2822                      .dwattr $C$DW$185, DW_AT_name("CLLLC_HAL_setupPWMinUpDownCountMode")
    2823                      .dwattr $C$DW$185, DW_AT_TI_call
    2824              
    2825 0000000b 7640!         LCR       #||CLLLC_HAL_setupPWMinUpDownCountMode|| ; [CPU_ALU] |260| 
         0000000c 0000 
    2826                      ; call occurs [#||CLLLC_HAL_setupPWMinUpDownCountMode||] ; [] |260| 
    2827                      .dwpsn  file "../obc_7_4kw.c",line 263,column 5,is_stmt,isa 0
    2828 0000000d E802          MOVIZ     R0H,#18410            ; [CPU_FPU] |263| 
         0000000e 3F50 
    2829 0000000f E802          MOVIZ     R1H,#19684            ; [CPU_FPU] |263| 
         00000010 6721 
    2830 00000011 FF20          MOV       ACC,#20992            ; [CPU_ALU] |263| 
         00000012 5200 
    2831 00000013 E80B          MOVXI     R0H,#24576            ; [CPU_FPU] |263| 
         00000014 0000 
TMS320C2000 Assembler PC v22.6.0 Tue Dec 20 15:55:14 2022

Copyright (c) 1996-2018 Texas Instruments Incorporated
obc_7_4kw.asm                                                        PAGE   56

    2832 00000015 E80F          MOVXI     R1H,#57792            ; [CPU_FPU] |263| 
         00000016 0E01 
    2833              $C$DW$186       .dwtag  DW_TAG_TI_branch
    2834                      .dwattr $C$DW$186, DW_AT_low_pc(0x00)
    2835                      .dwattr $C$DW$186, DW_AT_name("CLLLC_HAL_setupECAPinPWMMode")
    2836                      .dwattr $C$DW$186, DW_AT_TI_call
    2837              
    2838 00000017 7640!         LCR       #||CLLLC_HAL_setupECAPinPWMMode|| ; [CPU_ALU] |263| 
         00000018 0000 
    2839                      ; call occurs [#||CLLLC_HAL_setupECAPinPWMMode||] ; [] |263| 
    2840 00000019 761F!         MOVW      DP,#||CLLLC_powerFlowStateActive|| ; [CPU_ARAU] 
         0000001a 0000 
    2841                      .dwpsn  file "C:\Users\gerar\workspace_v12\7.4kW_OBC_F28003x\clllc\clllc_hal.h",line 552,column 1,is_
    2842 0000001b 5900!         MOVZ      AR1,@||CLLLC_powerFlowStateActive|| ; [CPU_ALU] |552| 
    2843                      .dwpsn  file "C:\Users\gerar\workspace_v12\7.4kW_OBC_F28003x\clllc\clllc_hal.h",line 555,column 9,is_
    2844              $C$DW$187       .dwtag  DW_TAG_TI_branch
    2845                      .dwattr $C$DW$187, DW_AT_low_pc(0x00)
    2846                      .dwattr $C$DW$187, DW_AT_name("CLLLC_HAL_setupCLA")
    2847                      .dwattr $C$DW$187, DW_AT_TI_call
    2848              
    2849 0000001c 7640!         LCR       #||CLLLC_HAL_setupCLA|| ; [CPU_ALU] |555| 
         0000001d 0000 
    2850                      ; call occurs [#||CLLLC_HAL_setupCLA||] ; [] |555| 
    2851                      .dwpsn  file "C:/Users/gerar/workspace_v12/7.4kW_OBC_F28003x/device/driverlib/epwm.h",line 4964,colum
    2852 0000001e F5A9          MOV       AL,*(0:0x40a4)        ; [CPU_ALU] |4964| 
         0000001f 40A4 
    2853                      .dwpsn  file "C:\Users\gerar\workspace_v12\7.4kW_OBC_F28003x\clllc\clllc_hal.h",line 570,column 5,is_
    2854 00000020 E802          MOVIZ     R0H,#18410            ; [CPU_FPU] |570| 
         00000021 3F50 
    2855 00000022 E802          MOVIZ     R1H,#19684            ; [CPU_FPU] |570| 
         00000023 6721 
    2856                      .dwpsn  file "C:/Users/gerar/workspace_v12/7.4kW_OBC_F28003x/device/driverlib/epwm.h",line 4964,colum
    2857 00000024 5040          ORB       AL,#0x40              ; [CPU_ALU] |4964| 
    2858 00000025 F4A9          MOV       *(0:0x40a4),AL        ; [CPU_ALU] |4964| 
         00000026 40A4 
    2859                      .dwpsn  file "C:/Users/gerar/workspace_v12/7.4kW_OBC_F28003x/device/driverlib/epwm.h",line 4986,colum
    2860 00000027 F5A9          MOV       AL,*(0:0x40a4)        ; [CPU_ALU] |4986| 
         00000028 40A4 
    2861 00000029 CCA9          AND       AL,AL,#0xfffc         ; [CPU_ALU] |4986| 
         0000002a FFFC 
    2862 0000002b 5004          ORB       AL,#0x04              ; [CPU_ALU] |4986| 
    2863                      .dwpsn  file "C:\Users\gerar\workspace_v12\7.4kW_OBC_F28003x\clllc\clllc_hal.h",line 570,column 5,is_
    2864 0000002c E80B          MOVXI     R0H,#24576            ; [CPU_FPU] |570| 
         0000002d 0000 
    2865 0000002e E80F          MOVXI     R1H,#57792            ; [CPU_FPU] |570| 
         0000002f 0E01 
    2866                      .dwpsn  file "C:/Users/gerar/workspace_v12/7.4kW_OBC_F28003x/device/driverlib/epwm.h",line 4986,colum
    2867 00000030 F4A9          MOV       *(0:0x40a4),AL        ; [CPU_ALU] |4986| 
         00000031 40A4 
    2868                      .dwpsn  file "C:/Users/gerar/workspace_v12/7.4kW_OBC_F28003x/device/driverlib/epwm.h",line 2654,colum
    2869 00000032 28A9          MOV       AL,#280               ; [CPU_ALU] |2654| 
         00000033 0118 
    2870 00000034 F4A9          MOV       *(0:0x406f),AL        ; [CPU_ALU] |2654| 
         00000035 406F 
    2871                      .dwpsn  file "C:/Users/gerar/workspace_v12/7.4kW_OBC_F28003x/device/driverlib/epwm.h",line 5016,colum
TMS320C2000 Assembler PC v22.6.0 Tue Dec 20 15:55:14 2022

Copyright (c) 1996-2018 Texas Instruments Incorporated
obc_7_4kw.asm                                                        PAGE   57

    2872 00000036 F5A9          MOV       AL,*(0:0x40a6)        ; [CPU_ALU] |5016| 
         00000037 40A6 
    2873 00000038 5010          ORB       AL,#0x10              ; [CPU_ALU] |5016| 
    2874 00000039 F4A9          MOV       *(0:0x40a6),AL        ; [CPU_ALU] |5016| 
         0000003a 40A6 
    2875                      .dwpsn  file "C:/Users/gerar/workspace_v12/7.4kW_OBC_F28003x/device/driverlib/epwm.h",line 5017,colum
    2876 0000003b F5A9          MOV       AL,*(0:0x40ae)        ; [CPU_ALU] |5017| 
         0000003c 40AE 
    2877 0000003d CCA9          AND       AL,AL,#0xfff0         ; [CPU_ALU] |5017| 
         0000003e FFF0 
    2878 0000003f 5001          ORB       AL,#0x01              ; [CPU_ALU] |5017| 
    2879 00000040 F4A9          MOV       *(0:0x40ae),AL        ; [CPU_ALU] |5017| 
         00000041 40AE 
    2880                      .dwpsn  file "C:/Users/gerar/workspace_v12/7.4kW_OBC_F28003x/device/driverlib/epwm.h",line 5071,colum
    2881 00000042 F5A9          MOV       AL,*(0:0x40aa)        ; [CPU_ALU] |5071| 
         00000043 40AA 
    2882 00000044 5001          ORB       AL,#0x01              ; [CPU_ALU] |5071| 
    2883 00000045 F4A9          MOV       *(0:0x40aa),AL        ; [CPU_ALU] |5071| 
         00000046 40AA 
    2884                      .dwpsn  file "C:/Users/gerar/workspace_v12/7.4kW_OBC_F28003x/device/driverlib/epwm.h",line 4884,colum
    2885 00000047 F5A9          MOV       AL,*(0:0x40a4)        ; [CPU_ALU] |4884| 
         00000048 40A4 
    2886 00000049 5008          ORB       AL,#0x08              ; [CPU_ALU] |4884| 
    2887 0000004a F4A9          MOV       *(0:0x40a4),AL        ; [CPU_ALU] |4884| 
         0000004b 40A4 
    2888                      .dwpsn  file "C:\Users\gerar\workspace_v12\7.4kW_OBC_F28003x\clllc\clllc_hal.h",line 570,column 5,is_
    2889 0000004c FF20          MOV       ACC,#20992            ; [CPU_ALU] |570| 
         0000004d 5200 
    2890              $C$DW$188       .dwtag  DW_TAG_TI_branch
    2891                      .dwattr $C$DW$188, DW_AT_low_pc(0x00)
    2892                      .dwattr $C$DW$188, DW_AT_name("CLLLC_HAL_setupECAPinPWMMode")
    2893                      .dwattr $C$DW$188, DW_AT_TI_call
    2894              
    2895 0000004e 7640!         LCR       #||CLLLC_HAL_setupECAPinPWMMode|| ; [CPU_ALU] |570| 
         0000004f 0000 
    2896                      ; call occurs [#||CLLLC_HAL_setupECAPinPWMMode||] ; [] |570| 
    2897                      .dwpsn  file "C:/Users/gerar/workspace_v12/7.4kW_OBC_F28003x/device/driverlib/ecap.h",line 654,column
    2898 00000050 7622          EALLOW    ; [CPU_ALU] |654| 
    2899                      .dwpsn  file "C:/Users/gerar/workspace_v12/7.4kW_OBC_F28003x/device/driverlib/ecap.h",line 659,column
    2900 00000051 F5A9          MOV       AL,*(0:0x5216)        ; [CPU_ALU] |659| 
         00000052 5216 
    2901 00000053 5040          ORB       AL,#0x40              ; [CPU_ALU] |659| 
    2902 00000054 F4A9          MOV       *(0:0x5216),AL        ; [CPU_ALU] |659| 
         00000055 5216 
    2903                      .dwpsn  file "C:/Users/gerar/workspace_v12/7.4kW_OBC_F28003x/device/driverlib/ecap.h",line 660,column
    2904 00000056 761A          EDIS      ; [CPU_ALU] |660| 
    2905                      .dwpsn  file "C:/Users/gerar/workspace_v12/7.4kW_OBC_F28003x/device/driverlib/cputimer.h",line 208,co
    2906 00000057 F5A9          MOV       AL,*(0:0x0c14)        ; [CPU_ALU] |208| 
         00000058 0C14 
    2907 00000059 CCA9          AND       AL,AL,#0x7fff         ; [CPU_ALU] |208| 
         0000005a 7FFF 
    2908                      .dwpsn  file "C:/Users/gerar/workspace_v12/7.4kW_OBC_F28003x/device/driverlib/cputimer.h",line 209,co
    2909 0000005b 1AA9          OR        AL,#0x4000            ; [CPU_ALU] |209| 
         0000005c 4000 
    2910 0000005d F4A9          MOV       *(0:0x0c14),AL        ; [CPU_ALU] |209| 
TMS320C2000 Assembler PC v22.6.0 Tue Dec 20 15:55:14 2022

Copyright (c) 1996-2018 Texas Instruments Incorporated
obc_7_4kw.asm                                                        PAGE   58

         0000005e 0C14 
    2911                      .dwpsn  file "C:/Users/gerar/workspace_v12/7.4kW_OBC_F28003x/device/driverlib/cputimer.h",line 165,co
    2912 0000005f F5A9          MOV       AL,*(0:0x0c14)        ; [CPU_ALU] |165| 
         00000060 0C14 
    2913 00000061 1AA9          OR        AL,#0x8000            ; [CPU_ALU] |165| 
         00000062 8000 
    2914 00000063 F4A9          MOV       *(0:0x0c14),AL        ; [CPU_ALU] |165| 
         00000064 0C14 
    2915                      .dwpsn  file "C:/Users/gerar/workspace_v12/7.4kW_OBC_F28003x/device/driverlib/adc.h",line 1822,column
    2916 00000065 7622          EALLOW    ; [CPU_ALU] |1822| 
    2917                      .dwpsn  file "C:/Users/gerar/workspace_v12/7.4kW_OBC_F28003x/device/driverlib/adc.h",line 1824,column
    2918 00000066 F5A9          MOV       AL,*(0:0x7507)        ; [CPU_ALU] |1824| 
         00000067 7507 
    2919 00000068 1AA9          OR        AL,#0x0f00            ; [CPU_ALU] |1824| 
         00000069 0F00 
    2920 0000006a F4A9          MOV       *(0:0x7507),AL        ; [CPU_ALU] |1824| 
         0000006b 7507 
    2921                      .dwpsn  file "C:/Users/gerar/workspace_v12/7.4kW_OBC_F28003x/device/driverlib/adc.h",line 1728,column
    2922 0000006c F5A9          MOV       AL,*(0:0x7507)        ; [CPU_ALU] |1728| 
         0000006d 7507 
    2923 0000006e 1AA9          OR        AL,#0x2000            ; [CPU_ALU] |1728| 
         0000006f 2000 
    2924 00000070 F4A9          MOV       *(0:0x7507),AL        ; [CPU_ALU] |1728| 
         00000071 7507 
    2925                      .dwpsn  file "C:/Users/gerar/workspace_v12/7.4kW_OBC_F28003x/device/driverlib/adc.h",line 1873,column
    2926 00000072 F5A9          MOV       AL,*(0:0x7507)        ; [CPU_ALU] |1873| 
         00000073 7507 
    2927 00000074 1AA9          OR        AL,#0x4000            ; [CPU_ALU] |1873| 
         00000075 4000 
    2928 00000076 F4A9          MOV       *(0:0x7507),AL        ; [CPU_ALU] |1873| 
         00000077 7507 
    2929                      .dwpsn  file "C:/Users/gerar/workspace_v12/7.4kW_OBC_F28003x/device/driverlib/adc.h",line 1875,column
    2930 00000078 761A          EDIS      ; [CPU_ALU] |1875| 
    2931                      .dwpsn  file "C:/Users/gerar/workspace_v12/7.4kW_OBC_F28003x/device/driverlib/adc.h",line 808,column 
    2932 00000079 9A02          MOVB      AL,#2                 ; [CPU_ALU] |808| 
    2933 0000007a F4A9          MOV       *(0:0x7504),AL        ; [CPU_ALU] |808| 
         0000007b 7504 
    2934 0000007c 92A1          MOV       AL,AR1                ; [CPU_ALU] |808| 
    2935                      .dwpsn  file "C:\Users\gerar\workspace_v12\7.4kW_OBC_F28003x\clllc\clllc_hal.h",line 597,column 9,is_
    2936 0000007d 5202          CMPB      AL,#2                 ; [CPU_ALU] |597| 
    2937 0000007e 6105          B         ||$C$L24||,EQ         ; [CPU_ALU] |597| 
    2938                      ; branchcc occurs ; [] |597| 
    2939                      .dwpsn  file "C:\Users\gerar\workspace_v12\7.4kW_OBC_F28003x\device\driverlib\interrupt.h",line 306,c
    2940 0000007f 7622          EALLOW    ; [CPU_ALU] |306| 
    2941                      .dwpsn  file "C:\Users\gerar\workspace_v12\7.4kW_OBC_F28003x\device\driverlib\interrupt.h",line 307,c
    2942 00000080 8F00!         MOVL      XAR4,#||ISR2_primToSecPowerFlow|| ; [CPU_ARAU] |307| 
         00000081 0000 
    2943                      .dwpsn  file "C:\Users\gerar\workspace_v12\7.4kW_OBC_F28003x\clllc\clllc_hal.h",line 603,column 13,is
    2944 00000082 6F04          B         ||$C$L25||,UNC        ; [CPU_ALU] |603| 
    2945                      ; branch occurs ; [] |603| 
    2946 00000083       ||$C$L24||:    
    2947                      .dwpsn  file "C:\Users\gerar\workspace_v12\7.4kW_OBC_F28003x\device\driverlib\interrupt.h",line 306,c
    2948 00000083 7622          EALLOW    ; [CPU_ALU] |306| 
    2949                      .dwpsn  file "C:\Users\gerar\workspace_v12\7.4kW_OBC_F28003x\device\driverlib\interrupt.h",line 307,c
    2950 00000084 8F00!         MOVL      XAR4,#||ISR2_secToPrimPowerFlow|| ; [CPU_ARAU] |307| 
TMS320C2000 Assembler PC v22.6.0 Tue Dec 20 15:55:14 2022

Copyright (c) 1996-2018 Texas Instruments Incorporated
obc_7_4kw.asm                                                        PAGE   59

         00000085 0000 
    2951 00000086       ||$C$L25||:    
    2952 00000086 BDA4          MOV32     *(0:0x0d70),XAR4      ; [CPU_FPU] |307| 
         00000087 0D70 
    2953                      .dwpsn  file "C:\Users\gerar\workspace_v12\7.4kW_OBC_F28003x\device\driverlib\interrupt.h",line 308,c
    2954 00000088 761A          EDIS      ; [CPU_ALU] |308| 
    2955                      .dwpsn  file "C:\Users\gerar\workspace_v12\7.4kW_OBC_F28003x\device\driverlib\interrupt.h",line 427,c
    2956 00000089 9A08          MOVB      AL,#8                 ; [CPU_ALU] |427| 
    2957 0000008a F4A9          MOV       *(0:0x0ce1),AL        ; [CPU_ALU] |427| 
         0000008b 0CE1 
    2958                      .dwpsn  file "C:\Users\gerar\workspace_v12\7.4kW_OBC_F28003x\clllc\clllc_hal.h",line 606,column 9,is_
    2959 0000008c 8F38          MOVL      XAR4,#3671041         ; [CPU_ARAU] |606| 
         0000008d 0401 
    2960 0000008e A8A9          MOVL      ACC,XAR4              ; [CPU_ALU] |606| 
    2961              $C$DW$189       .dwtag  DW_TAG_TI_branch
    2962                      .dwattr $C$DW$189, DW_AT_low_pc(0x00)
    2963                      .dwattr $C$DW$189, DW_AT_name("Interrupt_enable")
    2964                      .dwattr $C$DW$189, DW_AT_TI_call
    2965              
    2966 0000008f 7640!         LCR       #||Interrupt_enable|| ; [CPU_ALU] |606| 
         00000090 0000 
    2967                      ; call occurs [#||Interrupt_enable||] ; [] |606| 
    2968                      .dwpsn  file "C:\Users\gerar\workspace_v12\7.4kW_OBC_F28003x\device\driverlib\interrupt.h",line 306,c
    2969 00000091 7622          EALLOW    ; [CPU_ALU] |306| 
    2970                      .dwpsn  file "C:\Users\gerar\workspace_v12\7.4kW_OBC_F28003x\device\driverlib\interrupt.h",line 307,c
    2971 00000092 8F00!         MOVL      XAR4,#||ISR3||        ; [CPU_ARAU] |307| 
         00000093 0000 
    2972 00000094 BDA4          MOV32     *(0:0x0e92),XAR4      ; [CPU_FPU] |307| 
         00000095 0E92 
    2973                      .dwpsn  file "C:\Users\gerar\workspace_v12\7.4kW_OBC_F28003x\device\driverlib\interrupt.h",line 308,c
    2974 00000096 761A          EDIS      ; [CPU_ALU] |308| 
    2975                      .dwpsn  file "C:\Users\gerar\workspace_v12\7.4kW_OBC_F28003x\clllc\clllc_hal.h",line 610,column 5,is_
    2976 00000097 28A9          MOV       AL,#2570              ; [CPU_ALU] |610| 
         00000098 0A0A 
    2977 00000099 9BC9          MOV       AH,#201               ; [CPU_ALU] |610| 
    2978              $C$DW$190       .dwtag  DW_TAG_TI_branch
    2979                      .dwattr $C$DW$190, DW_AT_low_pc(0x00)
    2980                      .dwattr $C$DW$190, DW_AT_name("Interrupt_enable")
    2981                      .dwattr $C$DW$190, DW_AT_TI_call
    2982              
    2983 0000009a 7640!         LCR       #||Interrupt_enable|| ; [CPU_ALU] |610| 
         0000009b 0000 
    2984                      ; call occurs [#||Interrupt_enable||] ; [] |610| 
    2985                      .dwpsn  file "C:\Users\gerar\workspace_v12\7.4kW_OBC_F28003x\clllc\clllc_hal.h",line 612,column 5,is_
    2986 0000009c 7622          EALLOW    ; [CPU_ALU] |612| 
    2987 0000009d 2910   clrc INTM
    2988 0000009e 2920   clrc DBGM
    2989                      .dwpsn  file "C:\Users\gerar\workspace_v12\7.4kW_OBC_F28003x\clllc\clllc_hal.h",line 621,column 5,is_
    2990 0000009f 761A          EDIS      ; [CPU_ALU] |621| 
    2991 000000a0 FF69          SPM       #0                    ; [CPU_ALU] 
    2992 000000a1 8BBE          MOVL      XAR1,*--SP            ; [CPU_ALU] 
    2993                      .dwcfi  cfa_offset, -2
    2994                      .dwcfi  restore_reg, 7
    2995              $C$DW$191       .dwtag  DW_TAG_TI_branch
    2996                      .dwattr $C$DW$191, DW_AT_low_pc(0x00)
TMS320C2000 Assembler PC v22.6.0 Tue Dec 20 15:55:14 2022

Copyright (c) 1996-2018 Texas Instruments Incorporated
obc_7_4kw.asm                                                        PAGE   60

    2997                      .dwattr $C$DW$191, DW_AT_TI_return
    2998              
    2999 000000a2 0006          LRETR     ; [CPU_ALU] 
    3000                      ; return occurs ; [] 
    3001                      .dwattr $C$DW$182, DW_AT_TI_end_file("../obc_7_4kw.c")
    3002                      .dwattr $C$DW$182, DW_AT_TI_end_line(0x111)
    3003                      .dwattr $C$DW$182, DW_AT_TI_end_column(0x01)
    3004                      .dwendentry
    3005                      .dwendtag $C$DW$182
    3006              
    3007 00000000               .sect   ".text:OBC_7_4KW_setupGaNTempReading"
    3008                      .clink
    3009                      .global ||OBC_7_4KW_setupGaNTempReading||
    3010              
    3011              $C$DW$192       .dwtag  DW_TAG_subprogram
    3012                      .dwattr $C$DW$192, DW_AT_name("OBC_7_4KW_setupGaNTempReading")
    3013                      .dwattr $C$DW$192, DW_AT_low_pc(||OBC_7_4KW_setupGaNTempReading||)
    3014                      .dwattr $C$DW$192, DW_AT_high_pc(0x00)
    3015                      .dwattr $C$DW$192, DW_AT_linkage_name("OBC_7_4KW_setupGaNTempReading")
    3016                      .dwattr $C$DW$192, DW_AT_external
    3017                      .dwattr $C$DW$192, DW_AT_decl_file("../obc_7_4kw.c")
    3018                      .dwattr $C$DW$192, DW_AT_decl_line(0xdf)
    3019                      .dwattr $C$DW$192, DW_AT_decl_column(0x06)
    3020                      .dwattr $C$DW$192, DW_AT_TI_max_frame_size(-2)
    3021                      .dwpsn  file "../obc_7_4kw.c",line 224,column 1,is_stmt,address ||OBC_7_4KW_setupGaNTempReading||,isa
    3022              
    3023                      .dwfde $C$DW$CIE, ||OBC_7_4KW_setupGaNTempReading||
    3024              
    3025              ;***************************************************************
    3026              ;* FNAME: OBC_7_4KW_setupGaNTempReading FR SIZE:   0           *
    3027              ;*                                                             *
    3028              ;* FUNCTION ENVIRONMENT                                        *
    3029              ;*                                                             *
    3030              ;* FUNCTION PROPERTIES                                         *
    3031              ;*                            0 Parameter,  0 Auto,  0 SOE     *
    3032              ;***************************************************************
    3033              
    3034 00000000       ||OBC_7_4KW_setupGaNTempReading||:
    3035                      .dwcfi  cfa_offset, -2
    3036                      .dwcfi  save_reg_to_mem, 26, 0
    3037                      .dwpsn  file "../obc_7_4kw.c",line 229,column 5,is_stmt,isa 0
    3038              $C$DW$193       .dwtag  DW_TAG_TI_branch
    3039                      .dwattr $C$DW$193, DW_AT_low_pc(0x00)
    3040                      .dwattr $C$DW$193, DW_AT_name("CLLLC_HAL_setupECAPforGaNTemp")
    3041                      .dwattr $C$DW$193, DW_AT_TI_call
    3042              
    3043 00000000 7640!         LCR       #||CLLLC_HAL_setupECAPforGaNTemp|| ; [CPU_ALU] |229| 
         00000001 0000 
    3044                      ; call occurs [#||CLLLC_HAL_setupECAPforGaNTemp||] ; [] |229| 
    3045              $C$DW$194       .dwtag  DW_TAG_TI_branch
    3046                      .dwattr $C$DW$194, DW_AT_low_pc(0x00)
    3047                      .dwattr $C$DW$194, DW_AT_TI_return
    3048              
    3049 00000002 0006          LRETR     ; [CPU_ALU] 
    3050                      ; return occurs ; [] 
TMS320C2000 Assembler PC v22.6.0 Tue Dec 20 15:55:14 2022

Copyright (c) 1996-2018 Texas Instruments Incorporated
obc_7_4kw.asm                                                        PAGE   61

    3051                      .dwattr $C$DW$192, DW_AT_TI_end_file("../obc_7_4kw.c")
    3052                      .dwattr $C$DW$192, DW_AT_TI_end_line(0xe6)
    3053                      .dwattr $C$DW$192, DW_AT_TI_end_column(0x01)
    3054                      .dwendentry
    3055                      .dwendtag $C$DW$192
    3056              
    3057 00000000               .sect   ".text:OBC_7_4KW_setupGPIO"
    3058                      .clink
    3059                      .global ||OBC_7_4KW_setupGPIO||
    3060              
    3061              $C$DW$195       .dwtag  DW_TAG_subprogram
    3062                      .dwattr $C$DW$195, DW_AT_name("OBC_7_4KW_setupGPIO")
    3063                      .dwattr $C$DW$195, DW_AT_low_pc(||OBC_7_4KW_setupGPIO||)
    3064                      .dwattr $C$DW$195, DW_AT_high_pc(0x00)
    3065                      .dwattr $C$DW$195, DW_AT_linkage_name("OBC_7_4KW_setupGPIO")
    3066                      .dwattr $C$DW$195, DW_AT_external
    3067                      .dwattr $C$DW$195, DW_AT_decl_file("../obc_7_4kw.c")
    3068                      .dwattr $C$DW$195, DW_AT_decl_line(0xbf)
    3069                      .dwattr $C$DW$195, DW_AT_decl_column(0x06)
    3070                      .dwattr $C$DW$195, DW_AT_TI_max_frame_size(-2)
    3071                      .dwpsn  file "../obc_7_4kw.c",line 192,column 1,is_stmt,address ||OBC_7_4KW_setupGPIO||,isa 0
    3072              
    3073                      .dwfde $C$DW$CIE, ||OBC_7_4KW_setupGPIO||
    3074              
    3075              ;***************************************************************
    3076              ;* FNAME: OBC_7_4KW_setupGPIO           FR SIZE:   0           *
    3077              ;*                                                             *
    3078              ;* FUNCTION ENVIRONMENT                                        *
    3079              ;*                                                             *
    3080              ;* FUNCTION PROPERTIES                                         *
    3081              ;*                            0 Parameter,  0 Auto,  0 SOE     *
    3082              ;***************************************************************
    3083              
    3084 00000000       ||OBC_7_4KW_setupGPIO||:
    3085                      .dwcfi  cfa_offset, -2
    3086                      .dwcfi  save_reg_to_mem, 26, 0
    3087                      .dwpsn  file "../obc_7_4kw.c",line 201,column 5,is_stmt,isa 0
    3088              $C$DW$196       .dwtag  DW_TAG_TI_branch
    3089                      .dwattr $C$DW$196, DW_AT_low_pc(0x00)
    3090                      .dwattr $C$DW$196, DW_AT_name("TTPLPFC_HAL_setupRelayGPIO")
    3091                      .dwattr $C$DW$196, DW_AT_TI_call
    3092              
    3093 00000000 7640!         LCR       #||TTPLPFC_HAL_setupRelayGPIO|| ; [CPU_ALU] |201| 
         00000001 0000 
    3094                      ; call occurs [#||TTPLPFC_HAL_setupRelayGPIO||] ; [] |201| 
    3095                      .dwpsn  file "../obc_7_4kw.c",line 206,column 5,is_stmt,isa 0
    3096              $C$DW$197       .dwtag  DW_TAG_TI_branch
    3097                      .dwattr $C$DW$197, DW_AT_low_pc(0x00)
    3098                      .dwattr $C$DW$197, DW_AT_name("CLLLC_HAL_setupGPIOs")
    3099                      .dwattr $C$DW$197, DW_AT_TI_call
    3100              
    3101 00000002 7640!         LCR       #||CLLLC_HAL_setupGPIOs|| ; [CPU_ALU] |206| 
         00000003 0000 
    3102                      ; call occurs [#||CLLLC_HAL_setupGPIOs||] ; [] |206| 
    3103              $C$DW$198       .dwtag  DW_TAG_TI_branch
TMS320C2000 Assembler PC v22.6.0 Tue Dec 20 15:55:14 2022

Copyright (c) 1996-2018 Texas Instruments Incorporated
obc_7_4kw.asm                                                        PAGE   62

    3104                      .dwattr $C$DW$198, DW_AT_low_pc(0x00)
    3105                      .dwattr $C$DW$198, DW_AT_TI_return
    3106              
    3107 00000004 0006          LRETR     ; [CPU_ALU] 
    3108                      ; return occurs ; [] 
    3109                      .dwattr $C$DW$195, DW_AT_TI_end_file("../obc_7_4kw.c")
    3110                      .dwattr $C$DW$195, DW_AT_TI_end_line(0xcf)
    3111                      .dwattr $C$DW$195, DW_AT_TI_end_column(0x01)
    3112                      .dwendentry
    3113                      .dwendtag $C$DW$195
    3114              
    3115 00000000               .sect   ".text:OBC_7_4KW_setupDevice"
    3116                      .clink
    3117                      .global ||OBC_7_4KW_setupDevice||
    3118              
    3119              $C$DW$199       .dwtag  DW_TAG_subprogram
    3120                      .dwattr $C$DW$199, DW_AT_name("OBC_7_4KW_setupDevice")
    3121                      .dwattr $C$DW$199, DW_AT_low_pc(||OBC_7_4KW_setupDevice||)
    3122                      .dwattr $C$DW$199, DW_AT_high_pc(0x00)
    3123                      .dwattr $C$DW$199, DW_AT_linkage_name("OBC_7_4KW_setupDevice")
    3124                      .dwattr $C$DW$199, DW_AT_external
    3125                      .dwattr $C$DW$199, DW_AT_decl_file("../obc_7_4kw.c")
    3126                      .dwattr $C$DW$199, DW_AT_decl_line(0x27)
    3127                      .dwattr $C$DW$199, DW_AT_decl_column(0x06)
    3128                      .dwattr $C$DW$199, DW_AT_TI_max_frame_size(-2)
    3129                      .dwpsn  file "../obc_7_4kw.c",line 40,column 1,is_stmt,address ||OBC_7_4KW_setupDevice||,isa 0
    3130              
    3131                      .dwfde $C$DW$CIE, ||OBC_7_4KW_setupDevice||
    3132              
    3133              ;***************************************************************
    3134              ;* FNAME: OBC_7_4KW_setupDevice         FR SIZE:   0           *
    3135              ;*                                                             *
    3136              ;* FUNCTION ENVIRONMENT                                        *
    3137              ;*                                                             *
    3138              ;* FUNCTION PROPERTIES                                         *
    3139              ;*                            0 Parameter,  0 Auto,  0 SOE     *
    3140              ;***************************************************************
    3141              
    3142 00000000       ||OBC_7_4KW_setupDevice||:
    3143                      .dwcfi  cfa_offset, -2
    3144                      .dwcfi  save_reg_to_mem, 26, 0
    3145                      .dwpsn  file "../obc_7_4kw.c",line 45,column 5,is_stmt,isa 0
    3146              $C$DW$200       .dwtag  DW_TAG_TI_branch
    3147                      .dwattr $C$DW$200, DW_AT_low_pc(0x00)
    3148                      .dwattr $C$DW$200, DW_AT_name("CLLLC_HAL_setupDevice")
    3149                      .dwattr $C$DW$200, DW_AT_TI_call
    3150              
    3151 00000000 7640!         LCR       #||CLLLC_HAL_setupDevice|| ; [CPU_ALU] |45| 
         00000001 0000 
    3152                      ; call occurs [#||CLLLC_HAL_setupDevice||] ; [] |45| 
    3153              $C$DW$201       .dwtag  DW_TAG_TI_branch
    3154                      .dwattr $C$DW$201, DW_AT_low_pc(0x00)
    3155                      .dwattr $C$DW$201, DW_AT_TI_return
    3156              
    3157 00000002 0006          LRETR     ; [CPU_ALU] 
TMS320C2000 Assembler PC v22.6.0 Tue Dec 20 15:55:14 2022

Copyright (c) 1996-2018 Texas Instruments Incorporated
obc_7_4kw.asm                                                        PAGE   63

    3158                      ; return occurs ; [] 
    3159                      .dwattr $C$DW$199, DW_AT_TI_end_file("../obc_7_4kw.c")
    3160                      .dwattr $C$DW$199, DW_AT_TI_end_line(0x2e)
    3161                      .dwattr $C$DW$199, DW_AT_TI_end_column(0x01)
    3162                      .dwendentry
    3163                      .dwendtag $C$DW$199
    3164              
    3165 00000000               .sect   ".text:OBC_7_4KW_setupBoardProtection"
    3166                      .clink
    3167                      .global ||OBC_7_4KW_setupBoardProtection||
    3168              
    3169              $C$DW$202       .dwtag  DW_TAG_subprogram
    3170                      .dwattr $C$DW$202, DW_AT_name("OBC_7_4KW_setupBoardProtection")
    3171                      .dwattr $C$DW$202, DW_AT_low_pc(||OBC_7_4KW_setupBoardProtection||)
    3172                      .dwattr $C$DW$202, DW_AT_high_pc(0x00)
    3173                      .dwattr $C$DW$202, DW_AT_linkage_name("OBC_7_4KW_setupBoardProtection")
    3174                      .dwattr $C$DW$202, DW_AT_external
    3175                      .dwattr $C$DW$202, DW_AT_decl_file("../obc_7_4kw.c")
    3176                      .dwattr $C$DW$202, DW_AT_decl_line(0xe8)
    3177                      .dwattr $C$DW$202, DW_AT_decl_column(0x06)
    3178                      .dwattr $C$DW$202, DW_AT_TI_max_frame_size(-2)
    3179                      .dwpsn  file "../obc_7_4kw.c",line 233,column 1,is_stmt,address ||OBC_7_4KW_setupBoardProtection||,is
    3180              
    3181                      .dwfde $C$DW$CIE, ||OBC_7_4KW_setupBoardProtection||
    3182              
    3183              ;***************************************************************
    3184              ;* FNAME: OBC_7_4KW_setupBoardProtection FR SIZE:   0           *
    3185              ;*                                                             *
    3186              ;* FUNCTION ENVIRONMENT                                        *
    3187              ;*                                                             *
    3188              ;* FUNCTION PROPERTIES                                         *
    3189              ;*                            0 Parameter,  0 Auto,  0 SOE     *
    3190              ;***************************************************************
    3191              
    3192 00000000       ||OBC_7_4KW_setupBoardProtection||:
    3193                      .dwcfi  cfa_offset, -2
    3194                      .dwcfi  save_reg_to_mem, 26, 0
    3195                      .dwpsn  file "../obc_7_4kw.c",line 238,column 5,is_stmt,isa 0
    3196 00000000 E802          MOVIZ     R1H,#16882            ; [CPU_FPU] |238| 
         00000001 0F91 
    3197 00000002 E802          MOVIZ     R0H,#16880            ; [CPU_FPU] |238| 
         00000003 0F80 
    3198 00000004 E80B          MOVXI     R1H,#27787            ; [CPU_FPU] |238| 
         00000005 6459 
    3199              $C$DW$203       .dwtag  DW_TAG_TI_branch
    3200                      .dwattr $C$DW$203, DW_AT_low_pc(0x00)
    3201                      .dwattr $C$DW$203, DW_AT_name("TTPLPFC_HAL_setupBoardProtection")
    3202                      .dwattr $C$DW$203, DW_AT_TI_call
    3203              
    3204 00000006 7640!         LCR       #||TTPLPFC_HAL_setupBoardProtection|| ; [CPU_ALU] |238| 
         00000007 0000 
    3205                      ; call occurs [#||TTPLPFC_HAL_setupBoardProtection||] ; [] |238| 
    3206                      .dwpsn  file "../obc_7_4kw.c",line 245,column 5,is_stmt,isa 0
    3207              $C$DW$204       .dwtag  DW_TAG_TI_branch
    3208                      .dwattr $C$DW$204, DW_AT_low_pc(0x00)
TMS320C2000 Assembler PC v22.6.0 Tue Dec 20 15:55:14 2022

Copyright (c) 1996-2018 Texas Instruments Incorporated
obc_7_4kw.asm                                                        PAGE   64

    3209                      .dwattr $C$DW$204, DW_AT_name("CLLLC_HAL_setupBoardProtection")
    3210                      .dwattr $C$DW$204, DW_AT_TI_call
    3211              
    3212 00000008 7640!         LCR       #||CLLLC_HAL_setupBoardProtection|| ; [CPU_ALU] |245| 
         00000009 0000 
    3213                      ; call occurs [#||CLLLC_HAL_setupBoardProtection||] ; [] |245| 
    3214              $C$DW$205       .dwtag  DW_TAG_TI_branch
    3215                      .dwattr $C$DW$205, DW_AT_low_pc(0x00)
    3216                      .dwattr $C$DW$205, DW_AT_TI_return
    3217              
    3218 0000000a 0006          LRETR     ; [CPU_ALU] 
    3219                      ; return occurs ; [] 
    3220                      .dwattr $C$DW$202, DW_AT_TI_end_file("../obc_7_4kw.c")
    3221                      .dwattr $C$DW$202, DW_AT_TI_end_line(0xf6)
    3222                      .dwattr $C$DW$202, DW_AT_TI_end_column(0x01)
    3223                      .dwendentry
    3224                      .dwendtag $C$DW$202
    3225              
    3226 00000000               .sect   ".text:OBC_7_4KW_setupActiveSyncRectCLLLC"
    3227                      .clink
    3228                      .global ||OBC_7_4KW_setupActiveSyncRectCLLLC||
    3229              
    3230              $C$DW$206       .dwtag  DW_TAG_subprogram
    3231                      .dwattr $C$DW$206, DW_AT_name("OBC_7_4KW_setupActiveSyncRectCLLLC")
    3232                      .dwattr $C$DW$206, DW_AT_low_pc(||OBC_7_4KW_setupActiveSyncRectCLLLC||)
    3233                      .dwattr $C$DW$206, DW_AT_high_pc(0x00)
    3234                      .dwattr $C$DW$206, DW_AT_linkage_name("OBC_7_4KW_setupActiveSyncRectCLLLC")
    3235                      .dwattr $C$DW$206, DW_AT_external
    3236                      .dwattr $C$DW$206, DW_AT_decl_file("../obc_7_4kw.c")
    3237                      .dwattr $C$DW$206, DW_AT_decl_line(0x63)
    3238                      .dwattr $C$DW$206, DW_AT_decl_column(0x06)
    3239                      .dwattr $C$DW$206, DW_AT_TI_max_frame_size(-2)
    3240                      .dwpsn  file "../obc_7_4kw.c",line 100,column 1,is_stmt,address ||OBC_7_4KW_setupActiveSyncRectCLLLC|
    3241              
    3242                      .dwfde $C$DW$CIE, ||OBC_7_4KW_setupActiveSyncRectCLLLC||
    3243              
    3244              ;***************************************************************
    3245              ;* FNAME: OBC_7_4KW_setupActiveSyncRectCLLLC FR SIZE:   0           *
    3246              ;*                                                             *
    3247              ;* FUNCTION ENVIRONMENT                                        *
